
System.elf:     file format elf32-avr

Sections:
Idx Name          Size      VMA       LMA       File off  Algn
  0 .data         0000024e  00800200  0000192c  000019c0  2**0
                  CONTENTS, ALLOC, LOAD, DATA
  1 .text         0000192c  00000000  00000000  00000094  2**1
                  CONTENTS, ALLOC, LOAD, READONLY, CODE
  2 .bss          00000a87  0080044e  0080044e  00001c0e  2**0
                  ALLOC
  3 .comment      0000005c  00000000  00000000  00001c0e  2**0
                  CONTENTS, READONLY
  4 .note.gnu.avr.deviceinfo 00000040  00000000  00000000  00001c6c  2**2
                  CONTENTS, READONLY
  5 .debug_aranges 00000220  00000000  00000000  00001cb0  2**3
                  CONTENTS, READONLY, DEBUGGING
  6 .debug_info   00001dce  00000000  00000000  00001ed0  2**0
                  CONTENTS, READONLY, DEBUGGING
  7 .debug_abbrev 00000a3b  00000000  00000000  00003c9e  2**0
                  CONTENTS, READONLY, DEBUGGING
  8 .debug_line   0000159e  00000000  00000000  000046d9  2**0
                  CONTENTS, READONLY, DEBUGGING
  9 .debug_frame  00000740  00000000  00000000  00005c78  2**2
                  CONTENTS, READONLY, DEBUGGING
 10 .debug_str    00000673  00000000  00000000  000063b8  2**0
                  CONTENTS, READONLY, DEBUGGING
 11 .debug_loc    00001b24  00000000  00000000  00006a2b  2**0
                  CONTENTS, READONLY, DEBUGGING
 12 .debug_ranges 000001d8  00000000  00000000  0000854f  2**0
                  CONTENTS, READONLY, DEBUGGING

Disassembly of section .text:

00000000 <__vectors>:
       0:	71 c0       	rjmp	.+226    	; 0xe4 <__ctors_end>
       2:	00 00       	nop
       4:	8f c0       	rjmp	.+286    	; 0x124 <__bad_interrupt>
       6:	00 00       	nop
       8:	8d c0       	rjmp	.+282    	; 0x124 <__bad_interrupt>
       a:	00 00       	nop
       c:	8b c0       	rjmp	.+278    	; 0x124 <__bad_interrupt>
       e:	00 00       	nop
      10:	89 c0       	rjmp	.+274    	; 0x124 <__bad_interrupt>
      12:	00 00       	nop
      14:	87 c0       	rjmp	.+270    	; 0x124 <__bad_interrupt>
      16:	00 00       	nop
      18:	85 c0       	rjmp	.+266    	; 0x124 <__bad_interrupt>
      1a:	00 00       	nop
      1c:	83 c0       	rjmp	.+262    	; 0x124 <__bad_interrupt>
      1e:	00 00       	nop
      20:	81 c0       	rjmp	.+258    	; 0x124 <__bad_interrupt>
      22:	00 00       	nop
      24:	7f c0       	rjmp	.+254    	; 0x124 <__bad_interrupt>
      26:	00 00       	nop
      28:	7d c0       	rjmp	.+250    	; 0x124 <__bad_interrupt>
      2a:	00 00       	nop
      2c:	7b c0       	rjmp	.+246    	; 0x124 <__bad_interrupt>
      2e:	00 00       	nop
      30:	79 c0       	rjmp	.+242    	; 0x124 <__bad_interrupt>
      32:	00 00       	nop
      34:	77 c0       	rjmp	.+238    	; 0x124 <__bad_interrupt>
      36:	00 00       	nop
      38:	75 c0       	rjmp	.+234    	; 0x124 <__bad_interrupt>
      3a:	00 00       	nop
      3c:	73 c0       	rjmp	.+230    	; 0x124 <__bad_interrupt>
      3e:	00 00       	nop
      40:	71 c0       	rjmp	.+226    	; 0x124 <__bad_interrupt>
      42:	00 00       	nop
      44:	6f c0       	rjmp	.+222    	; 0x124 <__bad_interrupt>
      46:	00 00       	nop
      48:	6d c0       	rjmp	.+218    	; 0x124 <__bad_interrupt>
      4a:	00 00       	nop
      4c:	6b c0       	rjmp	.+214    	; 0x124 <__bad_interrupt>
      4e:	00 00       	nop
      50:	69 c0       	rjmp	.+210    	; 0x124 <__bad_interrupt>
      52:	00 00       	nop
      54:	a9 c1       	rjmp	.+850    	; 0x3a8 <__vector_21>
      56:	00 00       	nop
      58:	65 c0       	rjmp	.+202    	; 0x124 <__bad_interrupt>
      5a:	00 00       	nop
      5c:	63 c0       	rjmp	.+198    	; 0x124 <__bad_interrupt>
      5e:	00 00       	nop
      60:	61 c0       	rjmp	.+194    	; 0x124 <__bad_interrupt>
      62:	00 00       	nop
      64:	0c 94 ca 08 	jmp	0x1194	; 0x1194 <__vector_25>
      68:	91 c7       	rjmp	.+3874   	; 0xf8c <__vector_26>
      6a:	00 00       	nop
      6c:	5b c0       	rjmp	.+182    	; 0x124 <__bad_interrupt>
      6e:	00 00       	nop
      70:	59 c0       	rjmp	.+178    	; 0x124 <__bad_interrupt>
      72:	00 00       	nop
      74:	57 c0       	rjmp	.+174    	; 0x124 <__bad_interrupt>
      76:	00 00       	nop
      78:	55 c0       	rjmp	.+170    	; 0x124 <__bad_interrupt>
      7a:	00 00       	nop
      7c:	53 c0       	rjmp	.+166    	; 0x124 <__bad_interrupt>
      7e:	00 00       	nop
      80:	51 c0       	rjmp	.+162    	; 0x124 <__bad_interrupt>
      82:	00 00       	nop
      84:	4f c0       	rjmp	.+158    	; 0x124 <__bad_interrupt>
      86:	00 00       	nop
      88:	4d c0       	rjmp	.+154    	; 0x124 <__bad_interrupt>
      8a:	00 00       	nop
      8c:	4b c0       	rjmp	.+150    	; 0x124 <__bad_interrupt>
      8e:	00 00       	nop
      90:	0c 94 f5 08 	jmp	0x11ea	; 0x11ea <__vector_36>
      94:	bc c7       	rjmp	.+3960   	; 0x100e <__vector_37>
      96:	00 00       	nop
      98:	45 c0       	rjmp	.+138    	; 0x124 <__bad_interrupt>
      9a:	00 00       	nop
      9c:	43 c0       	rjmp	.+134    	; 0x124 <__bad_interrupt>
      9e:	00 00       	nop
      a0:	41 c0       	rjmp	.+130    	; 0x124 <__bad_interrupt>
      a2:	00 00       	nop
      a4:	3f c0       	rjmp	.+126    	; 0x124 <__bad_interrupt>
      a6:	00 00       	nop
      a8:	3d c0       	rjmp	.+122    	; 0x124 <__bad_interrupt>
      aa:	00 00       	nop
      ac:	3b c0       	rjmp	.+118    	; 0x124 <__bad_interrupt>
      ae:	00 00       	nop
      b0:	39 c0       	rjmp	.+114    	; 0x124 <__bad_interrupt>
      b2:	00 00       	nop
      b4:	37 c0       	rjmp	.+110    	; 0x124 <__bad_interrupt>
      b6:	00 00       	nop
      b8:	35 c0       	rjmp	.+106    	; 0x124 <__bad_interrupt>
      ba:	00 00       	nop
      bc:	33 c0       	rjmp	.+102    	; 0x124 <__bad_interrupt>
      be:	00 00       	nop
      c0:	31 c0       	rjmp	.+98     	; 0x124 <__bad_interrupt>
      c2:	00 00       	nop
      c4:	2f c0       	rjmp	.+94     	; 0x124 <__bad_interrupt>
      c6:	00 00       	nop
      c8:	2d c0       	rjmp	.+90     	; 0x124 <__bad_interrupt>
      ca:	00 00       	nop
      cc:	0c 94 20 09 	jmp	0x1240	; 0x1240 <__vector_51>
      d0:	df c7       	rjmp	.+4030   	; 0x1090 <__vector_52>
      d2:	00 00       	nop
      d4:	27 c0       	rjmp	.+78     	; 0x124 <__bad_interrupt>
      d6:	00 00       	nop
      d8:	0c 94 4b 09 	jmp	0x1296	; 0x1296 <__vector_54>
      dc:	0c 94 89 08 	jmp	0x1112	; 0x1112 <__vector_55>
      e0:	21 c0       	rjmp	.+66     	; 0x124 <__bad_interrupt>
	...

000000e4 <__ctors_end>:
      e4:	11 24       	eor	r1, r1
      e6:	1f be       	out	0x3f, r1	; 63
      e8:	cf ef       	ldi	r28, 0xFF	; 255
      ea:	d1 e2       	ldi	r29, 0x21	; 33
      ec:	de bf       	out	0x3e, r29	; 62
      ee:	cd bf       	out	0x3d, r28	; 61
      f0:	00 e0       	ldi	r16, 0x00	; 0
      f2:	0c bf       	out	0x3c, r16	; 60

000000f4 <__do_copy_data>:
      f4:	14 e0       	ldi	r17, 0x04	; 4
      f6:	a0 e0       	ldi	r26, 0x00	; 0
      f8:	b2 e0       	ldi	r27, 0x02	; 2
      fa:	ec e2       	ldi	r30, 0x2C	; 44
      fc:	f9 e1       	ldi	r31, 0x19	; 25
      fe:	00 e0       	ldi	r16, 0x00	; 0
     100:	0b bf       	out	0x3b, r16	; 59
     102:	02 c0       	rjmp	.+4      	; 0x108 <__do_copy_data+0x14>
     104:	07 90       	elpm	r0, Z+
     106:	0d 92       	st	X+, r0
     108:	ae 34       	cpi	r26, 0x4E	; 78
     10a:	b1 07       	cpc	r27, r17
     10c:	d9 f7       	brne	.-10     	; 0x104 <__do_copy_data+0x10>

0000010e <__do_clear_bss>:
     10e:	2e e0       	ldi	r18, 0x0E	; 14
     110:	ae e4       	ldi	r26, 0x4E	; 78
     112:	b4 e0       	ldi	r27, 0x04	; 4
     114:	01 c0       	rjmp	.+2      	; 0x118 <.do_clear_bss_start>

00000116 <.do_clear_bss_loop>:
     116:	1d 92       	st	X+, r1

00000118 <.do_clear_bss_start>:
     118:	a5 3d       	cpi	r26, 0xD5	; 213
     11a:	b2 07       	cpc	r27, r18
     11c:	e1 f7       	brne	.-8      	; 0x116 <.do_clear_bss_loop>
     11e:	6b d4       	rcall	.+2262   	; 0x9f6 <main>
     120:	0c 94 94 0c 	jmp	0x1928	; 0x1928 <_exit>

00000124 <__bad_interrupt>:
     124:	6d cf       	rjmp	.-294    	; 0x0 <__vectors>

00000126 <x_yield>:

		.section .text
		.global x_yield
x_yield:
	// Save "callee-save" registers
		push  r2
     126:	2f 92       	push	r2
		push  r3
     128:	3f 92       	push	r3
		push  r4
     12a:	4f 92       	push	r4
		push  r5
     12c:	5f 92       	push	r5
		push  r6
     12e:	6f 92       	push	r6
		push  r7
     130:	7f 92       	push	r7
		push  r8
     132:	8f 92       	push	r8
		push  r9
     134:	9f 92       	push	r9
		push  r10
     136:	af 92       	push	r10
		push  r11
     138:	bf 92       	push	r11
		push  r12
     13a:	cf 92       	push	r12
		push  r13
     13c:	df 92       	push	r13
		push  r14
     13e:	ef 92       	push	r14
		push  r15
     140:	ff 92       	push	r15
		push  r16
     142:	0f 93       	push	r16
		push  r17
     144:	1f 93       	push	r17
		push  r28
     146:	cf 93       	push	r28
		push  r29
     148:	df 93       	push	r29

//------------------------------------------------------------------
//   Get thread ID and mask
//------------------------------------------------------------------
		lds   r18,x_thread_id
     14a:	20 91 5b 04 	lds	r18, 0x045B
		lds   r19,x_thread_mask
     14e:	30 91 8f 0c 	lds	r19, 0x0C8F

//------------------------------------------------------------------
// Store SP into current thread's stack-save area
//------------------------------------------------------------------
		cli					;disable interrupts
     152:	f8 94       	cli
		in		r14,SPL
     154:	ed b6       	in	r14, 0x3d	; 61
		in		r15,SPH
     156:	fe b6       	in	r15, 0x3e	; 62
		sei					;re-enable interrupts--assumes that interrupts must be enabled--does not save state of flags
     158:	78 94       	sei


		ldi		r30,lo8(stack)
     15a:	ed e5       	ldi	r30, 0x5D	; 93
		ldi		r31,hi8(stack)
     15c:	f4 e0       	ldi	r31, 0x04	; 4
		lsl		r18
     15e:	22 0f       	add	r18, r18
		lsl		r18
     160:	22 0f       	add	r18, r18
		add		r30,r18
     162:	e2 0f       	add	r30, r18
		adc		r31,r1  ;z = stacks+(id*4) to give pointer to stacks[thread_id].ps
     164:	f1 1d       	adc	r31, r1
		st		z+,r14	;save SPL
     166:	e1 92       	st	Z+, r14
		st		z,r15	;save SPH
     168:	f0 82       	st	Z, r15

0000016a <x_schedule>:
;                         if reached from k_new() function
;-------------------------------------------------------------------------
		.global	x_schedule
x_schedule:
	// determine READY status of each thread
		lds		r18,x_disable_status
     16a:	20 91 8e 0c 	lds	r18, 0x0C8E
		lds		r19,x_delay_status
     16e:	30 91 5c 04 	lds	r19, 0x045C
		lds		r20,x_suspend_status
     172:	40 91 7d 04 	lds	r20, 0x047D
		or		r18,r19
     176:	23 2b       	or	r18, r19
		or		r18,r20
     178:	24 2b       	or	r18, r20
		lds		r19, x_thread_id		;get current thread
     17a:	30 91 5b 04 	lds	r19, 0x045B
		lds		r20, x_thread_mask
     17e:	40 91 8f 0c 	lds	r20, 0x0C8F
		ldi		r22,NUM_THREADS		;max number of threads
     182:	68 e0       	ldi	r22, 0x08	; 8
		clc							;make sure Carry flag is clear
     184:	88 94       	clc
;------------------------------------------------
;   Loop through all threads to test for READY
;------------------------------------------------
1:
		inc		r19					;inc to next thread id...
     186:	33 95       	inc	r19
		andi	r19,7				;...modulo 8
     188:	37 70       	andi	r19, 0x07	; 7
		rol		r20					;shift mask left
     18a:	44 1f       	adc	r20, r20
		brcc	2f					;skip next instruction if C is clear
     18c:	08 f4       	brcc	.+2      	; 0x190 <x_schedule+0x26>
		rol		r20					;perform second rotate if bit7 was set (to rotate through Carry flag)
     18e:	44 1f       	adc	r20, r20
2:
		mov		r23,r20				;save copy of mask
     190:	74 2f       	mov	r23, r20
		and		r20,r18				;test bit corresponding to status of next thread
     192:	42 23       	and	r20, r18
		breq	restore				;break out if READY
     194:	19 f0       	breq	.+6      	; 0x19c <restore>
		dec		r22					;decrement thread count
     196:	6a 95       	dec	r22
		brne	1b					;back to test next thread
     198:	b1 f7       	brne	.-20     	; 0x186 <x_schedule+0x1c>
;  SLEEP HERE:  Here's where we sleep (no threads are READY)
;  but for now we'll jump back to schedule loop again
;----------------------------------------------------------
		; add sleep instructions here...

		rjmp	x_schedule			
     19a:	e7 cf       	rjmp	.-50     	; 0x16a <x_schedule>

0000019c <restore>:

;---------------------------------------------------
; Restore context of next READY thread
;---------------------------------------------------
restore:
		sts		x_thread_id,r19
     19c:	30 93 5b 04 	sts	0x045B, r19
		sts		x_thread_mask,r23
     1a0:	70 93 8f 0c 	sts	0x0C8F, r23

		ldi		r30,lo8(stack)
     1a4:	ed e5       	ldi	r30, 0x5D	; 93
		ldi		r31,hi8(stack)
     1a6:	f4 e0       	ldi	r31, 0x04	; 4
		lsl		r19
     1a8:	33 0f       	add	r19, r19
		lsl		r19
     1aa:	33 0f       	add	r19, r19
		add		r30,r19
     1ac:	e3 0f       	add	r30, r19
		adc		r31,r1	;z = stacks+(id*4) to give pointer to stacks[thread_id].sp
     1ae:	f1 1d       	adc	r31, r1
		ld		r18,z+	;get SPL
     1b0:	21 91       	ld	r18, Z+
		ld		r19,z	;get SPH
     1b2:	30 81       	ld	r19, Z
		
		cli
     1b4:	f8 94       	cli
		out		SPL,r18		;restore SP
     1b6:	2d bf       	out	0x3d, r18	; 61
		out		SPH,r19
     1b8:	3e bf       	out	0x3e, r19	; 62
		sei
     1ba:	78 94       	sei


		// Restore registers
		pop		r29
     1bc:	df 91       	pop	r29
		pop		r28
     1be:	cf 91       	pop	r28
		pop		r17
     1c0:	1f 91       	pop	r17
		pop		r16
     1c2:	0f 91       	pop	r16
		pop		r15
     1c4:	ff 90       	pop	r15
		pop		r14
     1c6:	ef 90       	pop	r14
		pop		r13
     1c8:	df 90       	pop	r13
		pop		r12
     1ca:	cf 90       	pop	r12
		pop		r11
     1cc:	bf 90       	pop	r11
		pop		r10
     1ce:	af 90       	pop	r10
		pop		r9
     1d0:	9f 90       	pop	r9
		pop		r8
     1d2:	8f 90       	pop	r8
		pop		r7
     1d4:	7f 90       	pop	r7
		pop		r6
     1d6:	6f 90       	pop	r6
		pop		r5
     1d8:	5f 90       	pop	r5
		pop		r4
     1da:	4f 90       	pop	r4
		pop		r3
     1dc:	3f 90       	pop	r3
		pop		r2
     1de:	2f 90       	pop	r2

		// Return to next thread
		ret
     1e0:	08 95       	ret

000001e2 <bit2mask8>:
//						  (interpreted as bit number)
//-----------------------------------------------------------------------------------------------
		.global bit2mask8
bit2mask8:
		;r24 containts thread ID input
		ldi r30,lo8(bitmask8_table)
     1e2:	ee ee       	ldi	r30, 0xEE	; 238
		ldi r31,hi8(bitmask8_table)
     1e4:	f1 e0       	ldi	r31, 0x01	; 1
		add r30,r24
     1e6:	e8 0f       	add	r30, r24
		adc r31,r1		;r1 always has 0 in it--so just add carry
     1e8:	f1 1d       	adc	r31, r1
		lpm r24,Z		;lpm accesses program memory (FLASH) indirectly using Z reg pair (r31:r30)
     1ea:	84 91       	lpm	r24, Z
		ret
     1ec:	08 95       	ret

000001ee <bitmask8_table>:
     1ee:	01 02       	muls	r16, r17
     1f0:	04 08       	sbc	r0, r4
     1f2:	10 20       	and	r1, r0
     1f4:	40 80       	ld	r4, Z

000001f6 <delay_usec>:
// Date:    3/24/16
//
		.section .text
		.global delay_usec
delay_usec:			//when called, takes 2 cycles to load parameter
		mov	r22,r24
     1f6:	68 2f       	mov	r22, r24
		or  r22,r25
     1f8:	69 2b       	or	r22, r25
		nop
     1fa:	00 00       	nop
		breq 1f	        // 5 cycles if branch taken, 4 if not
     1fc:	31 f0       	breq	.+12     	; 0x20a <delay_usec+0x14>
2:
		rcall	1f	// 9 cycles for call/ret
     1fe:	05 d0       	rcall	.+10     	; 0x20a <delay_usec+0x14>
		rjmp	3f      // 2 cycles
     200:	00 c0       	rjmp	.+0      	; 0x202 <delay_usec+0xc>
3:	
		nop		// 1 cycle
     202:	00 00       	nop
		sbiw	r24,1   // 2 cycles
     204:	01 97       	sbiw	r24, 0x01	; 1
		brne	2b      // 2 cycles branch taken, 1 cycle not taken
     206:	d9 f7       	brne	.-10     	; 0x1fe <delay_usec+0x8>
		nop             // 1 (added for prev branch not taken)
     208:	00 00       	nop
1:
     20a:	08 95       	ret

0000020c <x_new>:
   long val;
   ATOMIC_BLOCK(ATOMIC_RESTORESTATE){
      val = x_system_counter;
   }
   return val;
}
     20c:	cf 93       	push	r28
     20e:	df 93       	push	r29
     210:	c8 2f       	mov	r28, r24
     212:	d4 2f       	mov	r29, r20
     214:	90 e0       	ldi	r25, 0x00	; 0
     216:	dc 01       	movw	r26, r24
     218:	aa 0f       	add	r26, r26
     21a:	bb 1f       	adc	r27, r27
     21c:	aa 0f       	add	r26, r26
     21e:	bb 1f       	adc	r27, r27
     220:	ad 01       	movw	r20, r26
     222:	43 5a       	subi	r20, 0xA3	; 163
     224:	5b 4f       	sbci	r21, 0xFB	; 251
     226:	da 01       	movw	r26, r20
     228:	12 96       	adiw	r26, 0x02	; 2
     22a:	ed 91       	ld	r30, X+
     22c:	fc 91       	ld	r31, X
     22e:	13 97       	sbiw	r26, 0x03	; 3
     230:	60 83       	st	Z, r22
     232:	9f 01       	movw	r18, r30
     234:	21 50       	subi	r18, 0x01	; 1
     236:	31 09       	sbc	r19, r1
     238:	d9 01       	movw	r26, r18
     23a:	7c 93       	st	X, r23
     23c:	21 50       	subi	r18, 0x01	; 1
     23e:	31 09       	sbc	r19, r1
     240:	d9 01       	movw	r26, r18
     242:	1c 92       	st	X, r1
     244:	75 97       	sbiw	r30, 0x15	; 21
     246:	da 01       	movw	r26, r20
     248:	ed 93       	st	X+, r30
     24a:	fc 93       	st	X, r31
     24c:	ca df       	rcall	.-108    	; 0x1e2 <bit2mask8>
     24e:	dd 23       	and	r29, r29
     250:	41 f0       	breq	.+16     	; 0x262 <x_new+0x56>
     252:	98 2f       	mov	r25, r24
     254:	90 95       	com	r25
     256:	80 91 8e 0c 	lds	r24, 0x0C8E
     25a:	98 23       	and	r25, r24
     25c:	90 93 8e 0c 	sts	0x0C8E, r25
     260:	05 c0       	rjmp	.+10     	; 0x26c <x_new+0x60>
     262:	90 91 8e 0c 	lds	r25, 0x0C8E
     266:	98 2b       	or	r25, r24
     268:	90 93 8e 0c 	sts	0x0C8E, r25
     26c:	80 91 5b 04 	lds	r24, 0x045B
     270:	c8 13       	cpse	r28, r24
     272:	01 c0       	rjmp	.+2      	; 0x276 <x_new+0x6a>
     274:	7a df       	rcall	.-268    	; 0x16a <x_schedule>
     276:	df 91       	pop	r29
     278:	cf 91       	pop	r28
     27a:	08 95       	ret

0000027c <init_System_Timer>:
     27c:	82 e0       	ldi	r24, 0x02	; 2
     27e:	84 bd       	out	0x24, r24	; 36
     280:	9a ef       	ldi	r25, 0xFA	; 250
     282:	97 bd       	out	0x27, r25	; 39
     284:	80 93 6e 00 	sts	0x006E, r24
     288:	83 e0       	ldi	r24, 0x03	; 3
     28a:	85 bd       	out	0x25, r24	; 37
     28c:	08 95       	ret

0000028e <x_init>:
     28e:	cf 93       	push	r28
     290:	df 93       	push	r29
     292:	f8 94       	cli
     294:	8e ef       	ldi	r24, 0xFE	; 254
     296:	80 93 8e 0c 	sts	0x0C8E, r24
     29a:	10 92 7d 04 	sts	0x047D, r1
     29e:	10 92 5c 04 	sts	0x045C, r1
     2a2:	10 92 5b 04 	sts	0x045B, r1
     2a6:	81 e0       	ldi	r24, 0x01	; 1
     2a8:	80 93 8f 0c 	sts	0x0C8F, r24
     2ac:	cd e5       	ldi	r28, 0x5D	; 93
     2ae:	d4 e0       	ldi	r29, 0x04	; 4
     2b0:	8d e7       	ldi	r24, 0x7D	; 125
     2b2:	95 e0       	ldi	r25, 0x05	; 5
     2b4:	99 83       	std	Y+1, r25	; 0x01
     2b6:	88 83       	st	Y, r24
     2b8:	9b 83       	std	Y+3, r25	; 0x03
     2ba:	8a 83       	std	Y+2, r24	; 0x02
     2bc:	8d e7       	ldi	r24, 0x7D	; 125
     2be:	96 e0       	ldi	r25, 0x06	; 6
     2c0:	9d 83       	std	Y+5, r25	; 0x05
     2c2:	8c 83       	std	Y+4, r24	; 0x04
     2c4:	9f 83       	std	Y+7, r25	; 0x07
     2c6:	8e 83       	std	Y+6, r24	; 0x06
     2c8:	8d e7       	ldi	r24, 0x7D	; 125
     2ca:	97 e0       	ldi	r25, 0x07	; 7
     2cc:	99 87       	std	Y+9, r25	; 0x09
     2ce:	88 87       	std	Y+8, r24	; 0x08
     2d0:	9b 87       	std	Y+11, r25	; 0x0b
     2d2:	8a 87       	std	Y+10, r24	; 0x0a
     2d4:	8d e7       	ldi	r24, 0x7D	; 125
     2d6:	98 e0       	ldi	r25, 0x08	; 8
     2d8:	9d 87       	std	Y+13, r25	; 0x0d
     2da:	8c 87       	std	Y+12, r24	; 0x0c
     2dc:	9f 87       	std	Y+15, r25	; 0x0f
     2de:	8e 87       	std	Y+14, r24	; 0x0e
     2e0:	8d e7       	ldi	r24, 0x7D	; 125
     2e2:	99 e0       	ldi	r25, 0x09	; 9
     2e4:	99 8b       	std	Y+17, r25	; 0x11
     2e6:	88 8b       	std	Y+16, r24	; 0x10
     2e8:	9b 8b       	std	Y+19, r25	; 0x13
     2ea:	8a 8b       	std	Y+18, r24	; 0x12
     2ec:	8d e7       	ldi	r24, 0x7D	; 125
     2ee:	9a e0       	ldi	r25, 0x0A	; 10
     2f0:	9d 8b       	std	Y+21, r25	; 0x15
     2f2:	8c 8b       	std	Y+20, r24	; 0x14
     2f4:	9f 8b       	std	Y+23, r25	; 0x17
     2f6:	8e 8b       	std	Y+22, r24	; 0x16
     2f8:	8d e7       	ldi	r24, 0x7D	; 125
     2fa:	9b e0       	ldi	r25, 0x0B	; 11
     2fc:	99 8f       	std	Y+25, r25	; 0x19
     2fe:	88 8f       	std	Y+24, r24	; 0x18
     300:	9b 8f       	std	Y+27, r25	; 0x1b
     302:	8a 8f       	std	Y+26, r24	; 0x1a
     304:	8d e7       	ldi	r24, 0x7D	; 125
     306:	9c e0       	ldi	r25, 0x0C	; 12
     308:	9d 8f       	std	Y+29, r25	; 0x1d
     30a:	8c 8f       	std	Y+28, r24	; 0x1c
     30c:	9f 8f       	std	Y+31, r25	; 0x1f
     30e:	8e 8f       	std	Y+30, r24	; 0x1e
     310:	8a ea       	ldi	r24, 0xAA	; 170
     312:	80 93 7e 04 	sts	0x047E, r24
     316:	80 93 7e 05 	sts	0x057E, r24
     31a:	80 93 7e 06 	sts	0x067E, r24
     31e:	80 93 7e 07 	sts	0x077E, r24
     322:	80 93 7e 08 	sts	0x087E, r24
     326:	80 93 7e 09 	sts	0x097E, r24
     32a:	80 93 7e 0a 	sts	0x0A7E, r24
     32e:	80 93 7e 0b 	sts	0x0B7E, r24
     332:	a4 df       	rcall	.-184    	; 0x27c <init_System_Timer>
     334:	ed b7       	in	r30, 0x3d	; 61
     336:	fe b7       	in	r31, 0x3e	; 62
     338:	a8 81       	ld	r26, Y
     33a:	b9 81       	ldd	r27, Y+1	; 0x01
     33c:	85 81       	ldd	r24, Z+5	; 0x05
     33e:	8c 93       	st	X, r24
     340:	a8 81       	ld	r26, Y
     342:	b9 81       	ldd	r27, Y+1	; 0x01
     344:	84 81       	ldd	r24, Z+4	; 0x04
     346:	11 97       	sbiw	r26, 0x01	; 1
     348:	8c 93       	st	X, r24
     34a:	a8 81       	ld	r26, Y
     34c:	b9 81       	ldd	r27, Y+1	; 0x01
     34e:	83 81       	ldd	r24, Z+3	; 0x03
     350:	12 97       	sbiw	r26, 0x02	; 2
     352:	8c 93       	st	X, r24
     354:	a8 81       	ld	r26, Y
     356:	b9 81       	ldd	r27, Y+1	; 0x01
     358:	82 81       	ldd	r24, Z+2	; 0x02
     35a:	13 97       	sbiw	r26, 0x03	; 3
     35c:	8c 93       	st	X, r24
     35e:	88 81       	ld	r24, Y
     360:	99 81       	ldd	r25, Y+1	; 0x01
     362:	21 81       	ldd	r18, Z+1	; 0x01
     364:	fc 01       	movw	r30, r24
     366:	34 97       	sbiw	r30, 0x04	; 4
     368:	20 83       	st	Z, r18
     36a:	88 81       	ld	r24, Y
     36c:	99 81       	ldd	r25, Y+1	; 0x01
     36e:	05 97       	sbiw	r24, 0x05	; 5
     370:	9e bf       	out	0x3e, r25	; 62
     372:	8d bf       	out	0x3d, r24	; 61
     374:	78 94       	sei
     376:	df 91       	pop	r29
     378:	cf 91       	pop	r28
     37a:	08 95       	ret

0000037c <x_delay>:
     37c:	9c 01       	movw	r18, r24
     37e:	9f b7       	in	r25, 0x3f	; 63
     380:	f8 94       	cli
     382:	e0 91 5b 04 	lds	r30, 0x045B
     386:	f0 e0       	ldi	r31, 0x00	; 0
     388:	ee 0f       	add	r30, r30
     38a:	ff 1f       	adc	r31, r31
     38c:	e2 58       	subi	r30, 0x82	; 130
     38e:	f3 4f       	sbci	r31, 0xF3	; 243
     390:	31 83       	std	Z+1, r19	; 0x01
     392:	20 83       	st	Z, r18
     394:	20 91 5c 04 	lds	r18, 0x045C
     398:	80 91 8f 0c 	lds	r24, 0x0C8F
     39c:	82 2b       	or	r24, r18
     39e:	80 93 5c 04 	sts	0x045C, r24
     3a2:	9f bf       	out	0x3f, r25	; 63
     3a4:	c0 ce       	rjmp	.-640    	; 0x126 <x_yield>
     3a6:	08 95       	ret

000003a8 <__vector_21>:
                zero. If a thread is delayed and its counter reaches zero, then it
                is made READY and may be scheduled to run.

----------------------------------------------------------------------------------------*/
ISR(TIMER0_COMPA_vect)
{
     3a8:	1f 92       	push	r1
     3aa:	0f 92       	push	r0
     3ac:	0f b6       	in	r0, 0x3f	; 63
     3ae:	0f 92       	push	r0
     3b0:	11 24       	eor	r1, r1
     3b2:	0b b6       	in	r0, 0x3b	; 59
     3b4:	0f 92       	push	r0
     3b6:	2f 93       	push	r18
     3b8:	3f 93       	push	r19
     3ba:	4f 93       	push	r20
     3bc:	5f 93       	push	r21
     3be:	8f 93       	push	r24
     3c0:	9f 93       	push	r25
     3c2:	af 93       	push	r26
     3c4:	bf 93       	push	r27
     3c6:	ef 93       	push	r30
     3c8:	ff 93       	push	r31

   // Increment system counter
   x_system_counter++;
     3ca:	80 91 4e 04 	lds	r24, 0x044E
     3ce:	90 91 4f 04 	lds	r25, 0x044F
     3d2:	a0 91 50 04 	lds	r26, 0x0450
     3d6:	b0 91 51 04 	lds	r27, 0x0451
     3da:	01 96       	adiw	r24, 0x01	; 1
     3dc:	a1 1d       	adc	r26, r1
     3de:	b1 1d       	adc	r27, r1
     3e0:	80 93 4e 04 	sts	0x044E, r24
     3e4:	90 93 4f 04 	sts	0x044F, r25
     3e8:	a0 93 50 04 	sts	0x0450, r26
     3ec:	b0 93 51 04 	sts	0x0451, r27
     3f0:	30 91 5c 04 	lds	r19, 0x045C
     3f4:	ee e7       	ldi	r30, 0x7E	; 126
     3f6:	fc e0       	ldi	r31, 0x0C	; 12
     3f8:	4e e8       	ldi	r20, 0x8E	; 142
     3fa:	5c e0       	ldi	r21, 0x0C	; 12

   char msk = 0x01;  // start with thread 0
     3fc:	21 e0       	ldi	r18, 0x01	; 1

   unsigned int *pdelay = x_thread_delay;
   //decrement delays
   for(char i = 0; i < NUM_THREADS; i++){
      (*pdelay)--;
     3fe:	80 81       	ld	r24, Z
     400:	91 81       	ldd	r25, Z+1	; 0x01
     402:	01 97       	sbiw	r24, 0x01	; 1
     404:	81 93       	st	Z+, r24
     406:	91 93       	st	Z+, r25
      if(*pdelay == 0){
     408:	89 2b       	or	r24, r25
     40a:	19 f4       	brne	.+6      	; 0x412 <__vector_21+0x6a>
         x_delay_status &= ~msk;
     40c:	82 2f       	mov	r24, r18
     40e:	80 95       	com	r24
     410:	38 23       	and	r19, r24
      }
      msk <<= 1;
     412:	22 0f       	add	r18, r18

   char msk = 0x01;  // start with thread 0

   unsigned int *pdelay = x_thread_delay;
   //decrement delays
   for(char i = 0; i < NUM_THREADS; i++){
     414:	e4 17       	cp	r30, r20
     416:	f5 07       	cpc	r31, r21
     418:	91 f7       	brne	.-28     	; 0x3fe <__vector_21+0x56>
     41a:	30 93 5c 04 	sts	0x045C, r19
      }
      msk <<= 1;
      pdelay++;
   }
   
}
     41e:	ff 91       	pop	r31
     420:	ef 91       	pop	r30
     422:	bf 91       	pop	r27
     424:	af 91       	pop	r26
     426:	9f 91       	pop	r25
     428:	8f 91       	pop	r24
     42a:	5f 91       	pop	r21
     42c:	4f 91       	pop	r20
     42e:	3f 91       	pop	r19
     430:	2f 91       	pop	r18
     432:	0f 90       	pop	r0
     434:	0b be       	out	0x3b, r0	; 59
     436:	0f 90       	pop	r0
     438:	0f be       	out	0x3f, r0	; 63
     43a:	0f 90       	pop	r0
     43c:	1f 90       	pop	r1
     43e:	18 95       	reti

00000440 <ow_reset>:

/************************************************************************/
/* Attempts to determine whether there is a sensor attached.            */
/************************************************************************/
unsigned char ow_reset(void)
{
     440:	cf 93       	push	r28
	unsigned char presence;

 // pull DQ line low
	DDRE |= (1 << PE4); //set for output
     442:	6c 9a       	sbi	0x0d, 4	; 13
	PORTE &= ~(1 << PE4); //set value low
     444:	74 98       	cbi	0x0e, 4	; 14

 // leave it low for 480us
	delay_usec(479);
     446:	8f ed       	ldi	r24, 0xDF	; 223
     448:	91 e0       	ldi	r25, 0x01	; 1
     44a:	d5 de       	rcall	.-598    	; 0x1f6 <delay_usec>

 // allow line to return high
	PORTE |= (1 << PE4); //set value high
     44c:	74 9a       	sbi	0x0e, 4	; 14
	DDRE &= ~(1 << PE4); //set for input
     44e:	6c 98       	cbi	0x0d, 4	; 13
	//PORTE &= ~(1 << PE4); //set value low?

 // wait for presence
	delay_usec(69);
     450:	85 e4       	ldi	r24, 0x45	; 69
     452:	90 e0       	ldi	r25, 0x00	; 0
     454:	d0 de       	rcall	.-608    	; 0x1f6 <delay_usec>

 // get presence signal
	presence = !(PINE & (1 << PE4)); //read for presence
     456:	cc b1       	in	r28, 0x0c	; 12

// wait for end of timeslot
	delay_usec(229); 
     458:	85 ee       	ldi	r24, 0xE5	; 229
     45a:	90 e0       	ldi	r25, 0x00	; 0
     45c:	cc de       	rcall	.-616    	; 0x1f6 <delay_usec>

 // wait for presence
	delay_usec(69);

 // get presence signal
	presence = !(PINE & (1 << PE4)); //read for presence
     45e:	c2 95       	swap	r28
     460:	c1 70       	andi	r28, 0x01	; 1

// wait for end of timeslot
	delay_usec(229); 

	return(presence); // presence signal returned
} // 1=presence, 0=no sensor
     462:	81 e0       	ldi	r24, 0x01	; 1
     464:	8c 27       	eor	r24, r28
     466:	cf 91       	pop	r28
     468:	08 95       	ret

0000046a <ow_read_bit>:
/* Read a single bit from the sensor                                    */
/************************************************************************/
unsigned char ow_read_bit(void)
{
	//pull low
	DDRE |= (1 << PE4);
     46a:	6c 9a       	sbi	0x0d, 4	; 13
	PORTE &= ~(1 << PE4);
     46c:	74 98       	cbi	0x0e, 4	; 14
	//let return to high
	PORTE |= (1 << PE4); //set value high
     46e:	74 9a       	sbi	0x0e, 4	; 14
	DDRE &= ~(1 << PE4); //set for input
     470:	6c 98       	cbi	0x0d, 4	; 13
	
	delay_usec(14); //wait 15us
     472:	8e e0       	ldi	r24, 0x0E	; 14
     474:	90 e0       	ldi	r25, 0x00	; 0
     476:	bf de       	rcall	.-642    	; 0x1f6 <delay_usec>
	
	return(PINE & (1 << PE4));
     478:	8c b1       	in	r24, 0x0c	; 12
}
     47a:	80 71       	andi	r24, 0x10	; 16
     47c:	08 95       	ret

0000047e <ow_write_bit>:
/* Write a single bit                                                   */
/************************************************************************/
void ow_write_bit(char bitval)
{
	//pull low
	DDRE |= (1 << PE4);
     47e:	6c 9a       	sbi	0x0d, 4	; 13
	PORTE &= ~(1 << PE4);
     480:	74 98       	cbi	0x0e, 4	; 14
	
	//if writing a one, go high
	if (bitval == 1) {
     482:	81 30       	cpi	r24, 0x01	; 1
     484:	09 f4       	brne	.+2      	; 0x488 <ow_write_bit+0xa>
		PORTE |= (1 << PE4); //set value high
     486:	74 9a       	sbi	0x0e, 4	; 14
	}
	
	delay_usec(59); //wait 60us
     488:	8b e3       	ldi	r24, 0x3B	; 59
     48a:	90 e0       	ldi	r25, 0x00	; 0
     48c:	b4 de       	rcall	.-664    	; 0x1f6 <delay_usec>
	
	PORTE |= (1 << PE4); //set value high
     48e:	74 9a       	sbi	0x0e, 4	; 14
	DDRE &= ~(1 << PE4); //set for input
     490:	6c 98       	cbi	0x0d, 4	; 13
     492:	08 95       	ret

00000494 <ow_read_byte>:

/************************************************************************/
/* Read a single byte from the sensor                                   */
/************************************************************************/
unsigned char ow_read_byte(void) 
{
     494:	ef 92       	push	r14
     496:	ff 92       	push	r15
     498:	1f 93       	push	r17
     49a:	cf 93       	push	r28
     49c:	df 93       	push	r29
     49e:	c0 e0       	ldi	r28, 0x00	; 0
     4a0:	d0 e0       	ldi	r29, 0x00	; 0
	unsigned char value = 0;
     4a2:	10 e0       	ldi	r17, 0x00	; 0
	unsigned char i;
	for (i = 0; i < 8; i++) {
		if (ow_read_bit()) {
			value |= 0x01 << i; //reads a bit and left-shifts it into place
     4a4:	ee 24       	eor	r14, r14
     4a6:	e3 94       	inc	r14
     4a8:	f1 2c       	mov	r15, r1
unsigned char ow_read_byte(void) 
{
	unsigned char value = 0;
	unsigned char i;
	for (i = 0; i < 8; i++) {
		if (ow_read_bit()) {
     4aa:	df df       	rcall	.-66     	; 0x46a <ow_read_bit>
     4ac:	88 23       	and	r24, r24
     4ae:	41 f0       	breq	.+16     	; 0x4c0 <ow_read_byte+0x2c>
			value |= 0x01 << i; //reads a bit and left-shifts it into place
     4b0:	c7 01       	movw	r24, r14
     4b2:	0c 2e       	mov	r0, r28
     4b4:	02 c0       	rjmp	.+4      	; 0x4ba <ow_read_byte+0x26>
     4b6:	88 0f       	add	r24, r24
     4b8:	99 1f       	adc	r25, r25
     4ba:	0a 94       	dec	r0
     4bc:	e2 f7       	brpl	.-8      	; 0x4b6 <ow_read_byte+0x22>
     4be:	18 2b       	or	r17, r24
		}
		delay_usec(19); //wait 20us
     4c0:	83 e1       	ldi	r24, 0x13	; 19
     4c2:	90 e0       	ldi	r25, 0x00	; 0
     4c4:	98 de       	rcall	.-720    	; 0x1f6 <delay_usec>
     4c6:	21 96       	adiw	r28, 0x01	; 1
/************************************************************************/
unsigned char ow_read_byte(void) 
{
	unsigned char value = 0;
	unsigned char i;
	for (i = 0; i < 8; i++) {
     4c8:	c8 30       	cpi	r28, 0x08	; 8
     4ca:	d1 05       	cpc	r29, r1
     4cc:	71 f7       	brne	.-36     	; 0x4aa <ow_read_byte+0x16>
			value |= 0x01 << i; //reads a bit and left-shifts it into place
		}
		delay_usec(19); //wait 20us
	}
	return value;
}
     4ce:	81 2f       	mov	r24, r17
     4d0:	df 91       	pop	r29
     4d2:	cf 91       	pop	r28
     4d4:	1f 91       	pop	r17
     4d6:	ff 90       	pop	r15
     4d8:	ef 90       	pop	r14
     4da:	08 95       	ret

000004dc <ow_write_byte>:

/************************************************************************/
/* Write a single byte to the sensor                                    */
/************************************************************************/
void ow_write_byte(char val)
{
     4dc:	0f 93       	push	r16
     4de:	1f 93       	push	r17
     4e0:	cf 93       	push	r28
     4e2:	df 93       	push	r29
     4e4:	c0 e0       	ldi	r28, 0x00	; 0
     4e6:	d0 e0       	ldi	r29, 0x00	; 0
	unsigned char i;
	unsigned char temp;
	for (i = 0; i < 8; i++) {
		temp = val >> i;
     4e8:	08 2f       	mov	r16, r24
     4ea:	10 e0       	ldi	r17, 0x00	; 0
     4ec:	c8 01       	movw	r24, r16
     4ee:	0c 2e       	mov	r0, r28
     4f0:	02 c0       	rjmp	.+4      	; 0x4f6 <ow_write_byte+0x1a>
     4f2:	95 95       	asr	r25
     4f4:	87 95       	ror	r24
     4f6:	0a 94       	dec	r0
     4f8:	e2 f7       	brpl	.-8      	; 0x4f2 <ow_write_byte+0x16>
		temp &= 0x01;
		ow_write_bit(temp);
     4fa:	81 70       	andi	r24, 0x01	; 1
     4fc:	c0 df       	rcall	.-128    	; 0x47e <ow_write_bit>
     4fe:	21 96       	adiw	r28, 0x01	; 1
/************************************************************************/
void ow_write_byte(char val)
{
	unsigned char i;
	unsigned char temp;
	for (i = 0; i < 8; i++) {
     500:	c8 30       	cpi	r28, 0x08	; 8
     502:	d1 05       	cpc	r29, r1
     504:	99 f7       	brne	.-26     	; 0x4ec <ow_write_byte+0x10>
		temp = val >> i;
		temp &= 0x01;
		ow_write_bit(temp);
	}
	
	delay_usec(119); //wait 120us
     506:	87 e7       	ldi	r24, 0x77	; 119
     508:	90 e0       	ldi	r25, 0x00	; 0
     50a:	75 de       	rcall	.-790    	; 0x1f6 <delay_usec>
}
     50c:	df 91       	pop	r29
     50e:	cf 91       	pop	r28
     510:	1f 91       	pop	r17
     512:	0f 91       	pop	r16
     514:	08 95       	ret

00000516 <ow_read_temperature>:

/************************************************************************/
/* Read the current temperature from the sensor                         */
/************************************************************************/
int ow_read_temperature(void)
{
     516:	ef 92       	push	r14
     518:	ff 92       	push	r15
     51a:	0f 93       	push	r16
     51c:	1f 93       	push	r17
     51e:	cf 93       	push	r28
     520:	df 93       	push	r29
     522:	cd b7       	in	r28, 0x3d	; 61
     524:	de b7       	in	r29, 0x3e	; 62
     526:	2a 97       	sbiw	r28, 0x0a	; 10
     528:	0f b6       	in	r0, 0x3f	; 63
     52a:	f8 94       	cli
     52c:	de bf       	out	0x3e, r29	; 62
     52e:	0f be       	out	0x3f, r0	; 63
     530:	cd bf       	out	0x3d, r28	; 61
	char temp_lsb,temp_msb;
	int k;
	char temp_c;
	char shift_val = 4;
	//char temp_f;
	ow_reset();
     532:	86 df       	rcall	.-244    	; 0x440 <ow_reset>
	ow_write_byte(0xCC); //Skip ROM
     534:	8c ec       	ldi	r24, 0xCC	; 204
     536:	d2 df       	rcall	.-92     	; 0x4dc <ow_write_byte>
	ow_write_byte(0x44); // Start Conversion
     538:	84 e4       	ldi	r24, 0x44	; 68
     53a:	d0 df       	rcall	.-96     	; 0x4dc <ow_write_byte>
	delay_usec(119); //wait 120us
     53c:	87 e7       	ldi	r24, 0x77	; 119
     53e:	90 e0       	ldi	r25, 0x00	; 0
     540:	5a de       	rcall	.-844    	; 0x1f6 <delay_usec>
	ow_reset();
     542:	7e df       	rcall	.-260    	; 0x440 <ow_reset>
	ow_write_byte(0xCC); // Skip ROM
     544:	8c ec       	ldi	r24, 0xCC	; 204
     546:	ca df       	rcall	.-108    	; 0x4dc <ow_write_byte>
	ow_write_byte(0xBE); // Read Scratch Pad
     548:	8e eb       	ldi	r24, 0xBE	; 190
     54a:	c8 df       	rcall	.-112    	; 0x4dc <ow_write_byte>
     54c:	8e 01       	movw	r16, r28
     54e:	0f 5f       	subi	r16, 0xFF	; 255
     550:	1f 4f       	sbci	r17, 0xFF	; 255
     552:	7e 01       	movw	r14, r28
     554:	4a e0       	ldi	r20, 0x0A	; 10
     556:	e4 0e       	add	r14, r20
     558:	f1 1c       	adc	r15, r1
	for (k=0; k<9; k++) {
		get[k] = ow_read_byte();
     55a:	9c df       	rcall	.-200    	; 0x494 <ow_read_byte>
     55c:	f8 01       	movw	r30, r16
     55e:	81 93       	st	Z+, r24
     560:	8f 01       	movw	r16, r30
	ow_write_byte(0x44); // Start Conversion
	delay_usec(119); //wait 120us
	ow_reset();
	ow_write_byte(0xCC); // Skip ROM
	ow_write_byte(0xBE); // Read Scratch Pad
	for (k=0; k<9; k++) {
     562:	ee 15       	cp	r30, r14
     564:	ff 05       	cpc	r31, r15
     566:	c9 f7       	brne	.-14     	; 0x55a <ow_read_temperature+0x44>
		get[k] = ow_read_byte();
	}
	temp_msb = get[1]; // Sign byte + lsbit
     568:	9a 81       	ldd	r25, Y+2	; 0x02
	temp_lsb = get[0]; // Temp data plus lsb
     56a:	89 81       	ldd	r24, Y+1	; 0x01
	if (temp_msb <= 0x80){temp_lsb = (temp_lsb>>shift_val) | (temp_msb<<(8-shift_val));} // shift to get whole degree
     56c:	91 38       	cpi	r25, 0x81	; 129
     56e:	70 f4       	brcc	.+28     	; 0x58c <ow_read_temperature+0x76>
     570:	f0 e1       	ldi	r31, 0x10	; 16
     572:	9f 9f       	mul	r25, r31
     574:	90 01       	movw	r18, r0
     576:	11 24       	eor	r1, r1
     578:	82 95       	swap	r24
     57a:	8f 70       	andi	r24, 0x0F	; 15
     57c:	82 2b       	or	r24, r18
	temp_msb = temp_msb & 0x80; // mask all but the sign bit
	if (temp_msb >= 0x80) {temp_lsb = (~temp_lsb)+1;} // twos complement
     57e:	99 23       	and	r25, r25
     580:	1c f4       	brge	.+6      	; 0x588 <ow_read_temperature+0x72>
     582:	81 95       	neg	r24
	if (temp_msb >= 0x80) {temp_lsb = (temp_lsb/2);}// shift to get whole degree
     584:	86 95       	lsr	r24
	if (temp_msb >= 0x80) {temp_lsb = ((-1)*temp_lsb);} // add sign bit
     586:	81 95       	neg	r24
	temp_c = temp_lsb; // ready for conversion to Fahrenheit
	//temp_f = (((int)temp_c)* 9)/5 + 32;
	return temp_c;
     588:	90 e0       	ldi	r25, 0x00	; 0
     58a:	03 c0       	rjmp	.+6      	; 0x592 <ow_read_temperature+0x7c>
	}
	temp_msb = get[1]; // Sign byte + lsbit
	temp_lsb = get[0]; // Temp data plus lsb
	if (temp_msb <= 0x80){temp_lsb = (temp_lsb>>shift_val) | (temp_msb<<(8-shift_val));} // shift to get whole degree
	temp_msb = temp_msb & 0x80; // mask all but the sign bit
	if (temp_msb >= 0x80) {temp_lsb = (~temp_lsb)+1;} // twos complement
     58c:	99 23       	and	r25, r25
     58e:	e4 f7       	brge	.-8      	; 0x588 <ow_read_temperature+0x72>
     590:	f8 cf       	rjmp	.-16     	; 0x582 <ow_read_temperature+0x6c>
	if (temp_msb >= 0x80) {temp_lsb = (temp_lsb/2);}// shift to get whole degree
	if (temp_msb >= 0x80) {temp_lsb = ((-1)*temp_lsb);} // add sign bit
	temp_c = temp_lsb; // ready for conversion to Fahrenheit
	//temp_f = (((int)temp_c)* 9)/5 + 32;
	return temp_c;
}
     592:	2a 96       	adiw	r28, 0x0a	; 10
     594:	0f b6       	in	r0, 0x3f	; 63
     596:	f8 94       	cli
     598:	de bf       	out	0x3e, r29	; 62
     59a:	0f be       	out	0x3f, r0	; 63
     59c:	cd bf       	out	0x3d, r28	; 61
     59e:	df 91       	pop	r29
     5a0:	cf 91       	pop	r28
     5a2:	1f 91       	pop	r17
     5a4:	0f 91       	pop	r16
     5a6:	ff 90       	pop	r15
     5a8:	ef 90       	pop	r14
     5aa:	08 95       	ret

000005ac <io_controller>:
volatile int timeout = 60;

/*
 * Handles serial I/O
 */
void io_controller(void) {
     5ac:	cf 93       	push	r28
     5ae:	df 93       	push	r29
     5b0:	cd b7       	in	r28, 0x3d	; 61
     5b2:	de b7       	in	r29, 0x3e	; 62
     5b4:	cb 54       	subi	r28, 0x4B	; 75
     5b6:	d1 09       	sbc	r29, r1
     5b8:	0f b6       	in	r0, 0x3f	; 63
     5ba:	f8 94       	cli
     5bc:	de bf       	out	0x3e, r29	; 62
     5be:	0f be       	out	0x3f, r0	; 63
     5c0:	cd bf       	out	0x3d, r28	; 61
	Serial_open(0,19200,SERIAL_8N1);
     5c2:	26 e0       	ldi	r18, 0x06	; 6
     5c4:	30 e0       	ldi	r19, 0x00	; 0
     5c6:	40 e0       	ldi	r20, 0x00	; 0
     5c8:	5b e4       	ldi	r21, 0x4B	; 75
     5ca:	60 e0       	ldi	r22, 0x00	; 0
     5cc:	70 e0       	ldi	r23, 0x00	; 0
     5ce:	80 e0       	ldi	r24, 0x00	; 0
     5d0:	90 e0       	ldi	r25, 0x00	; 0
     5d2:	42 d3       	rcall	.+1668   	; 0xc58 <Serial_open>
	int opcode_len = 3;
	char command[command_len];
	char opcode[opcode_len];
	char operand[3];
	char message[64];
	char * str = message;
     5d4:	8e 01       	movw	r16, r28
     5d6:	04 5f       	subi	r16, 0xF4	; 244
     5d8:	1f 4f       	sbci	r17, 0xFF	; 255
								celsius = 1;
								str = "Set format to Celsius\n\r";
								Serial_write_string(0,str,strlen(str));
								break;
							case 'X':
								celsius = 1;
     5da:	55 24       	eor	r5, r5
     5dc:	53 94       	inc	r5
								format="Last temp: %x raw hex";
     5de:	0f 2e       	mov	r0, r31
     5e0:	f7 ed       	ldi	r31, 0xD7	; 215
     5e2:	8f 2e       	mov	r8, r31
     5e4:	f3 e0       	ldi	r31, 0x03	; 3
     5e6:	9f 2e       	mov	r9, r31
     5e8:	f0 2d       	mov	r31, r0
					//do operating mode things
					if (!strcmp(opcode, "ST")) {
						//set temperature
						target_temp = atoi(operand);
						if (target_temp < 0 || target_temp > 125) {
							str = "Invalid temperature selection. Sucks to suck.\n\r";
     5ea:	0f 2e       	mov	r0, r31
     5ec:	f9 e4       	ldi	r31, 0x49	; 73
     5ee:	6f 2e       	mov	r6, r31
     5f0:	f2 e0       	ldi	r31, 0x02	; 2
     5f2:	7f 2e       	mov	r7, r31
     5f4:	f0 2d       	mov	r31, r0
						} else {
							formatStr = "Set target temperature to %d degrees Celsius\n\r";
							if (sprintf(str,formatStr,target_temp) < 0) {
     5f6:	0f 2e       	mov	r0, r31
     5f8:	f5 ea       	ldi	r31, 0xA5	; 165
     5fa:	af 2e       	mov	r10, r31
     5fc:	f3 e0       	ldi	r31, 0x03	; 3
     5fe:	bf 2e       	mov	r11, r31
     600:	f0 2d       	mov	r31, r0
							str = "Formatting Error\n\r";
						}
						Serial_write_string(0, str, strlen(str));
					} 
					else if (!strcmp(opcode, "SO")) {
						timeout = operand[0] * 60;
     602:	0f 2e       	mov	r0, r31
     604:	fc e3       	ldi	r31, 0x3C	; 60
     606:	3f 2e       	mov	r3, r31
     608:	f0 2d       	mov	r31, r0
						formatStr = "Timeout set to %d seconds\n\r";
						if (sprintf(str,formatStr,timeout) < 0) {
     60a:	0f 2e       	mov	r0, r31
     60c:	f6 e8       	ldi	r31, 0x86	; 134
     60e:	ef 2e       	mov	r14, r31
     610:	f3 e0       	ldi	r31, 0x03	; 3
     612:	ff 2e       	mov	r15, r31
     614:	f0 2d       	mov	r31, r0
						Serial_write_string(0, str, strlen(str));
					} 
					else if (!strcmp(opcode, "OV")) {
						over_temp = atoi(operand);
						formatStr = "Over-temperature set to %d degrees Celsius\n\r";
						if (sprintf(str,formatStr,over_temp) < 0) {
     616:	0f 2e       	mov	r0, r31
     618:	f6 e5       	ldi	r31, 0x56	; 86
     61a:	cf 2e       	mov	r12, r31
     61c:	f3 e0       	ldi	r31, 0x03	; 3
     61e:	df 2e       	mov	r13, r31
     620:	f0 2d       	mov	r31, r0
	char message[64];
	char * str = message;
	char * formatStr;
	while(1) {
		//if we are able to read a command
		if(Serial_read_string(0,command,command_len)) {
     622:	45 e0       	ldi	r20, 0x05	; 5
     624:	50 e0       	ldi	r21, 0x00	; 0
     626:	be 01       	movw	r22, r28
     628:	6f 5f       	subi	r22, 0xFF	; 255
     62a:	7f 4f       	sbci	r23, 0xFF	; 255
     62c:	80 e0       	ldi	r24, 0x00	; 0
     62e:	90 e0       	ldi	r25, 0x00	; 0
     630:	38 d4       	rcall	.+2160   	; 0xea2 <Serial_read_string>
     632:	89 2b       	or	r24, r25
     634:	09 f4       	brne	.+2      	; 0x638 <io_controller+0x8c>
     636:	b8 c1       	rjmp	.+880    	; 0x9a8 <io_controller+0x3fc>
			opcode[0] = command[0];
     638:	89 81       	ldd	r24, Y+1	; 0x01
     63a:	8e 83       	std	Y+6, r24	; 0x06
			opcode[1] = command[1];
     63c:	8a 81       	ldd	r24, Y+2	; 0x02
     63e:	8f 83       	std	Y+7, r24	; 0x07
			/************************************************************************/
			/* Mode-selection commands                                              */
			/************************************************************************/
			if(!strcmp(opcode,"SM")) {//set service mode to true;
     640:	67 e4       	ldi	r22, 0x47	; 71
     642:	73 e0       	ldi	r23, 0x03	; 3
     644:	ce 01       	movw	r24, r28
     646:	06 96       	adiw	r24, 0x06	; 6
     648:	95 d6       	rcall	.+3370   	; 0x1374 <strcmp>
     64a:	89 2b       	or	r24, r25
     64c:	61 f4       	brne	.+24     	; 0x666 <io_controller+0xba>
				str = "Entering Service Mode\n\r";
				Serial_write_string(0,str,strlen(str));
     64e:	47 e1       	ldi	r20, 0x17	; 23
     650:	50 e0       	ldi	r21, 0x00	; 0
     652:	6b ea       	ldi	r22, 0xAB	; 171
     654:	72 e0       	ldi	r23, 0x02	; 2
     656:	80 e0       	ldi	r24, 0x00	; 0
     658:	90 e0       	ldi	r25, 0x00	; 0
     65a:	7b d4       	rcall	.+2294   	; 0xf52 <Serial_write_string>
				service_mode = 1;
     65c:	50 92 94 0c 	sts	0x0C94, r5
			opcode[1] = command[1];
			/************************************************************************/
			/* Mode-selection commands                                              */
			/************************************************************************/
			if(!strcmp(opcode,"SM")) {//set service mode to true;
				str = "Entering Service Mode\n\r";
     660:	0b ea       	ldi	r16, 0xAB	; 171
     662:	12 e0       	ldi	r17, 0x02	; 2
     664:	aa c1       	rjmp	.+852    	; 0x9ba <io_controller+0x40e>
				Serial_write_string(0,str,strlen(str));
				service_mode = 1;
			} else if (!strcmp(opcode,"TM")) {//toggle service mode
     666:	6a e4       	ldi	r22, 0x4A	; 74
     668:	73 e0       	ldi	r23, 0x03	; 3
     66a:	ce 01       	movw	r24, r28
     66c:	06 96       	adiw	r24, 0x06	; 6
     66e:	82 d6       	rcall	.+3332   	; 0x1374 <strcmp>
     670:	89 2b       	or	r24, r25
     672:	f9 f4       	brne	.+62     	; 0x6b2 <io_controller+0x106>
				service_mode = !service_mode;
     674:	90 91 94 0c 	lds	r25, 0x0C94
     678:	85 2d       	mov	r24, r5
     67a:	91 11       	cpse	r25, r1
     67c:	80 e0       	ldi	r24, 0x00	; 0
     67e:	80 93 94 0c 	sts	0x0C94, r24
				if (service_mode) {
     682:	80 91 94 0c 	lds	r24, 0x0C94
     686:	88 23       	and	r24, r24
     688:	51 f0       	breq	.+20     	; 0x69e <io_controller+0xf2>
					str = "Entering Service Mode\n\r";
					Serial_write_string(0,str,strlen(str));
     68a:	47 e1       	ldi	r20, 0x17	; 23
     68c:	50 e0       	ldi	r21, 0x00	; 0
     68e:	6b ea       	ldi	r22, 0xAB	; 171
     690:	72 e0       	ldi	r23, 0x02	; 2
     692:	80 e0       	ldi	r24, 0x00	; 0
     694:	90 e0       	ldi	r25, 0x00	; 0
     696:	5d d4       	rcall	.+2234   	; 0xf52 <Serial_write_string>
				Serial_write_string(0,str,strlen(str));
				service_mode = 1;
			} else if (!strcmp(opcode,"TM")) {//toggle service mode
				service_mode = !service_mode;
				if (service_mode) {
					str = "Entering Service Mode\n\r";
     698:	0b ea       	ldi	r16, 0xAB	; 171
     69a:	12 e0       	ldi	r17, 0x02	; 2
     69c:	8e c1       	rjmp	.+796    	; 0x9ba <io_controller+0x40e>
					Serial_write_string(0,str,strlen(str));
				} else {
					str = "Entering Operating Mode\n\r";
					Serial_write_string(0,str,strlen(str));
     69e:	49 e1       	ldi	r20, 0x19	; 25
     6a0:	50 e0       	ldi	r21, 0x00	; 0
     6a2:	69 e7       	ldi	r22, 0x79	; 121
     6a4:	72 e0       	ldi	r23, 0x02	; 2
     6a6:	80 e0       	ldi	r24, 0x00	; 0
     6a8:	90 e0       	ldi	r25, 0x00	; 0
     6aa:	53 d4       	rcall	.+2214   	; 0xf52 <Serial_write_string>
				service_mode = !service_mode;
				if (service_mode) {
					str = "Entering Service Mode\n\r";
					Serial_write_string(0,str,strlen(str));
				} else {
					str = "Entering Operating Mode\n\r";
     6ac:	09 e7       	ldi	r16, 0x79	; 121
     6ae:	12 e0       	ldi	r17, 0x02	; 2
     6b0:	84 c1       	rjmp	.+776    	; 0x9ba <io_controller+0x40e>
					Serial_write_string(0,str,strlen(str));
				}
			} else if (!strcmp(opcode, "OM")) {//set service mode to false
     6b2:	6d e4       	ldi	r22, 0x4D	; 77
     6b4:	73 e0       	ldi	r23, 0x03	; 3
     6b6:	ce 01       	movw	r24, r28
     6b8:	06 96       	adiw	r24, 0x06	; 6
     6ba:	5c d6       	rcall	.+3256   	; 0x1374 <strcmp>
     6bc:	89 2b       	or	r24, r25
     6be:	61 f4       	brne	.+24     	; 0x6d8 <io_controller+0x12c>
				str = "Entering Operating Mode\n\r";
				Serial_write_string(0,str,strlen(str));
     6c0:	49 e1       	ldi	r20, 0x19	; 25
     6c2:	50 e0       	ldi	r21, 0x00	; 0
     6c4:	69 e7       	ldi	r22, 0x79	; 121
     6c6:	72 e0       	ldi	r23, 0x02	; 2
     6c8:	80 e0       	ldi	r24, 0x00	; 0
     6ca:	90 e0       	ldi	r25, 0x00	; 0
     6cc:	42 d4       	rcall	.+2180   	; 0xf52 <Serial_write_string>
				service_mode = 0;
     6ce:	10 92 94 0c 	sts	0x0C94, r1
				} else {
					str = "Entering Operating Mode\n\r";
					Serial_write_string(0,str,strlen(str));
				}
			} else if (!strcmp(opcode, "OM")) {//set service mode to false
				str = "Entering Operating Mode\n\r";
     6d2:	09 e7       	ldi	r16, 0x79	; 121
     6d4:	12 e0       	ldi	r17, 0x02	; 2
     6d6:	71 c1       	rjmp	.+738    	; 0x9ba <io_controller+0x40e>
				service_mode = 0;
			} else {
				/************************************************************************/
				/* Mode-specific commands                                               */
				/************************************************************************/
				if(service_mode) {
     6d8:	80 91 94 0c 	lds	r24, 0x0C94
     6dc:	88 23       	and	r24, r24
     6de:	09 f4       	brne	.+2      	; 0x6e2 <io_controller+0x136>
     6e0:	ab c0       	rjmp	.+342    	; 0x838 <io_controller+0x28c>
					operand[0] = command[2];
     6e2:	4b 80       	ldd	r4, Y+3	; 0x03
     6e4:	49 86       	std	Y+9, r4	; 0x09
					//do service mode things
					if (!strcmp(opcode, "GT")) {
     6e6:	60 e5       	ldi	r22, 0x50	; 80
     6e8:	73 e0       	ldi	r23, 0x03	; 3
     6ea:	ce 01       	movw	r24, r28
     6ec:	06 96       	adiw	r24, 0x06	; 6
     6ee:	42 d6       	rcall	.+3204   	; 0x1374 <strcmp>
     6f0:	89 2b       	or	r24, r25
     6f2:	c1 f5       	brne	.+112    	; 0x764 <io_controller+0x1b8>
						//Get temperature
						char fmt_temp = last_temp;
     6f4:	60 91 52 04 	lds	r22, 0x0452
						if (!celsius) {
     6f8:	80 91 02 02 	lds	r24, 0x0202
     6fc:	81 11       	cpse	r24, r1
     6fe:	10 c0       	rjmp	.+32     	; 0x720 <io_controller+0x174>
							//this is equivalent to (9/5)*C + 32
							fmt_temp = ((fmt_temp + (fmt_temp << 3))+160)/5;
     700:	86 2f       	mov	r24, r22
     702:	90 e0       	ldi	r25, 0x00	; 0
     704:	9c 01       	movw	r18, r24
     706:	22 0f       	add	r18, r18
     708:	33 1f       	adc	r19, r19
     70a:	22 0f       	add	r18, r18
     70c:	33 1f       	adc	r19, r19
     70e:	22 0f       	add	r18, r18
     710:	33 1f       	adc	r19, r19
     712:	82 0f       	add	r24, r18
     714:	93 1f       	adc	r25, r19
     716:	80 56       	subi	r24, 0x60	; 96
     718:	9f 4f       	sbci	r25, 0xFF	; 255
     71a:	65 e0       	ldi	r22, 0x05	; 5
     71c:	70 e0       	ldi	r23, 0x00	; 0
     71e:	e6 d5       	rcall	.+3020   	; 0x12ec <__divmodhi4>
						}
						if (sprintf(str, format, fmt_temp) < 0) {
     720:	1f 92       	push	r1
     722:	6f 93       	push	r22
     724:	80 91 04 02 	lds	r24, 0x0204
     728:	8f 93       	push	r24
     72a:	80 91 03 02 	lds	r24, 0x0203
     72e:	8f 93       	push	r24
     730:	1f 93       	push	r17
     732:	0f 93       	push	r16
     734:	30 d6       	rcall	.+3168   	; 0x1396 <sprintf>
     736:	0f 90       	pop	r0
     738:	0f 90       	pop	r0
     73a:	0f 90       	pop	r0
     73c:	0f 90       	pop	r0
     73e:	0f 90       	pop	r0
     740:	0f 90       	pop	r0
     742:	99 23       	and	r25, r25
     744:	14 f4       	brge	.+4      	; 0x74a <io_controller+0x19e>
							str = "Formatting Error\n\r";
     746:	06 e3       	ldi	r16, 0x36	; 54
     748:	12 e0       	ldi	r17, 0x02	; 2
						}
						Serial_write_string(0, str, strlen(str));
     74a:	f8 01       	movw	r30, r16
     74c:	01 90       	ld	r0, Z+
     74e:	00 20       	and	r0, r0
     750:	e9 f7       	brne	.-6      	; 0x74c <io_controller+0x1a0>
     752:	31 97       	sbiw	r30, 0x01	; 1
     754:	af 01       	movw	r20, r30
     756:	40 1b       	sub	r20, r16
     758:	51 0b       	sbc	r21, r17
     75a:	b8 01       	movw	r22, r16
     75c:	80 e0       	ldi	r24, 0x00	; 0
     75e:	90 e0       	ldi	r25, 0x00	; 0
     760:	f8 d3       	rcall	.+2032   	; 0xf52 <Serial_write_string>
     762:	2b c1       	rjmp	.+598    	; 0x9ba <io_controller+0x40e>
					} 
					else if (!strcmp(opcode, "OV")) {
     764:	63 e5       	ldi	r22, 0x53	; 83
     766:	73 e0       	ldi	r23, 0x03	; 3
     768:	ce 01       	movw	r24, r28
     76a:	06 96       	adiw	r24, 0x06	; 6
     76c:	03 d6       	rcall	.+3078   	; 0x1374 <strcmp>
     76e:	89 2b       	or	r24, r25
     770:	49 f5       	brne	.+82     	; 0x7c4 <io_controller+0x218>
						over_temp = atoi(operand);
     772:	ce 01       	movw	r24, r28
     774:	09 96       	adiw	r24, 0x09	; 9
     776:	e1 d5       	rcall	.+3010   	; 0x133a <atoi>
     778:	90 93 91 0c 	sts	0x0C91, r25
     77c:	80 93 90 0c 	sts	0x0C90, r24
						formatStr = "Over-temperature set to %d degrees Celsius\n\r";
						if (sprintf(str,formatStr,over_temp) < 0) {
     780:	80 91 90 0c 	lds	r24, 0x0C90
     784:	90 91 91 0c 	lds	r25, 0x0C91
     788:	9f 93       	push	r25
     78a:	8f 93       	push	r24
     78c:	df 92       	push	r13
     78e:	cf 92       	push	r12
     790:	1f 93       	push	r17
     792:	0f 93       	push	r16
     794:	00 d6       	rcall	.+3072   	; 0x1396 <sprintf>
     796:	0f 90       	pop	r0
     798:	0f 90       	pop	r0
     79a:	0f 90       	pop	r0
     79c:	0f 90       	pop	r0
     79e:	0f 90       	pop	r0
     7a0:	0f 90       	pop	r0
     7a2:	99 23       	and	r25, r25
     7a4:	14 f4       	brge	.+4      	; 0x7aa <io_controller+0x1fe>
							str = "Formatting Error\n\r";
     7a6:	06 e3       	ldi	r16, 0x36	; 54
     7a8:	12 e0       	ldi	r17, 0x02	; 2
						}
						Serial_write_string(0, str, strlen(str));
     7aa:	f8 01       	movw	r30, r16
     7ac:	01 90       	ld	r0, Z+
     7ae:	00 20       	and	r0, r0
     7b0:	e9 f7       	brne	.-6      	; 0x7ac <io_controller+0x200>
     7b2:	31 97       	sbiw	r30, 0x01	; 1
     7b4:	af 01       	movw	r20, r30
     7b6:	40 1b       	sub	r20, r16
     7b8:	51 0b       	sbc	r21, r17
     7ba:	b8 01       	movw	r22, r16
     7bc:	80 e0       	ldi	r24, 0x00	; 0
     7be:	90 e0       	ldi	r25, 0x00	; 0
     7c0:	c8 d3       	rcall	.+1936   	; 0xf52 <Serial_write_string>
     7c2:	fb c0       	rjmp	.+502    	; 0x9ba <io_controller+0x40e>
					} 
					else if (!strcmp(opcode, "SO")) {
     7c4:	63 e8       	ldi	r22, 0x83	; 131
     7c6:	73 e0       	ldi	r23, 0x03	; 3
     7c8:	ce 01       	movw	r24, r28
     7ca:	06 96       	adiw	r24, 0x06	; 6
     7cc:	d3 d5       	rcall	.+2982   	; 0x1374 <strcmp>
     7ce:	89 2b       	or	r24, r25
     7d0:	49 f5       	brne	.+82     	; 0x824 <io_controller+0x278>
						timeout = operand[0] * 60;
     7d2:	34 9c       	mul	r3, r4
     7d4:	c0 01       	movw	r24, r0
     7d6:	11 24       	eor	r1, r1
     7d8:	90 93 01 02 	sts	0x0201, r25
     7dc:	80 93 00 02 	sts	0x0200, r24
						formatStr = "Timeout set to %d seconds\n\r";
						if (sprintf(str,formatStr,timeout) < 0) {
     7e0:	80 91 00 02 	lds	r24, 0x0200
     7e4:	90 91 01 02 	lds	r25, 0x0201
     7e8:	9f 93       	push	r25
     7ea:	8f 93       	push	r24
     7ec:	ff 92       	push	r15
     7ee:	ef 92       	push	r14
     7f0:	1f 93       	push	r17
     7f2:	0f 93       	push	r16
     7f4:	d0 d5       	rcall	.+2976   	; 0x1396 <sprintf>
     7f6:	0f 90       	pop	r0
     7f8:	0f 90       	pop	r0
     7fa:	0f 90       	pop	r0
     7fc:	0f 90       	pop	r0
     7fe:	0f 90       	pop	r0
     800:	0f 90       	pop	r0
     802:	99 23       	and	r25, r25
     804:	14 f4       	brge	.+4      	; 0x80a <io_controller+0x25e>
							str = "Formatting Error\n\r";
     806:	06 e3       	ldi	r16, 0x36	; 54
     808:	12 e0       	ldi	r17, 0x02	; 2
						}
						Serial_write_string(0, str, strlen(str));
     80a:	f8 01       	movw	r30, r16
     80c:	01 90       	ld	r0, Z+
     80e:	00 20       	and	r0, r0
     810:	e9 f7       	brne	.-6      	; 0x80c <io_controller+0x260>
     812:	31 97       	sbiw	r30, 0x01	; 1
     814:	af 01       	movw	r20, r30
     816:	40 1b       	sub	r20, r16
     818:	51 0b       	sbc	r21, r17
     81a:	b8 01       	movw	r22, r16
     81c:	80 e0       	ldi	r24, 0x00	; 0
     81e:	90 e0       	ldi	r25, 0x00	; 0
     820:	98 d3       	rcall	.+1840   	; 0xf52 <Serial_write_string>
     822:	cb c0       	rjmp	.+406    	; 0x9ba <io_controller+0x40e>
					}
					else {
						str = "Unrecognized command\n\r";
						Serial_write_string(0,str,strlen(str));
     824:	46 e1       	ldi	r20, 0x16	; 22
     826:	50 e0       	ldi	r21, 0x00	; 0
     828:	68 e1       	ldi	r22, 0x18	; 24
     82a:	73 e0       	ldi	r23, 0x03	; 3
     82c:	80 e0       	ldi	r24, 0x00	; 0
     82e:	90 e0       	ldi	r25, 0x00	; 0
     830:	90 d3       	rcall	.+1824   	; 0xf52 <Serial_write_string>
							str = "Formatting Error\n\r";
						}
						Serial_write_string(0, str, strlen(str));
					}
					else {
						str = "Unrecognized command\n\r";
     832:	08 e1       	ldi	r16, 0x18	; 24
     834:	13 e0       	ldi	r17, 0x03	; 3
     836:	c1 c0       	rjmp	.+386    	; 0x9ba <io_controller+0x40e>
						Serial_write_string(0,str,strlen(str));
					}
				} else {
					operand[0] = command[2];
     838:	4b 80       	ldd	r4, Y+3	; 0x03
     83a:	49 86       	std	Y+9, r4	; 0x09
					operand[1] = 0x00;
     83c:	1a 86       	std	Y+10, r1	; 0x0a
					if (command[3] != 0x00)
     83e:	8c 81       	ldd	r24, Y+4	; 0x04
     840:	81 11       	cpse	r24, r1
					{
						operand[1] = command[3];
     842:	8a 87       	std	Y+10, r24	; 0x0a
					}
					//do operating mode things
					if (!strcmp(opcode, "ST")) {
     844:	62 ea       	ldi	r22, 0xA2	; 162
     846:	73 e0       	ldi	r23, 0x03	; 3
     848:	ce 01       	movw	r24, r28
     84a:	06 96       	adiw	r24, 0x06	; 6
     84c:	93 d5       	rcall	.+2854   	; 0x1374 <strcmp>
     84e:	89 2b       	or	r24, r25
     850:	d1 f5       	brne	.+116    	; 0x8c6 <io_controller+0x31a>
						//set temperature
						target_temp = atoi(operand);
     852:	ce 01       	movw	r24, r28
     854:	09 96       	adiw	r24, 0x09	; 9
     856:	71 d5       	rcall	.+2786   	; 0x133a <atoi>
     858:	90 93 93 0c 	sts	0x0C93, r25
     85c:	80 93 92 0c 	sts	0x0C92, r24
						if (target_temp < 0 || target_temp > 125) {
     860:	80 91 92 0c 	lds	r24, 0x0C92
     864:	90 91 93 0c 	lds	r25, 0x0C93
     868:	99 23       	and	r25, r25
     86a:	ec f0       	brlt	.+58     	; 0x8a6 <io_controller+0x2fa>
     86c:	80 91 92 0c 	lds	r24, 0x0C92
     870:	90 91 93 0c 	lds	r25, 0x0C93
     874:	8e 37       	cpi	r24, 0x7E	; 126
     876:	91 05       	cpc	r25, r1
     878:	c4 f4       	brge	.+48     	; 0x8aa <io_controller+0x2fe>
							str = "Invalid temperature selection. Sucks to suck.\n\r";
						} else {
							formatStr = "Set target temperature to %d degrees Celsius\n\r";
							if (sprintf(str,formatStr,target_temp) < 0) {
     87a:	80 91 92 0c 	lds	r24, 0x0C92
     87e:	90 91 93 0c 	lds	r25, 0x0C93
     882:	9f 93       	push	r25
     884:	8f 93       	push	r24
     886:	bf 92       	push	r11
     888:	af 92       	push	r10
     88a:	1f 93       	push	r17
     88c:	0f 93       	push	r16
     88e:	83 d5       	rcall	.+2822   	; 0x1396 <sprintf>
     890:	0f 90       	pop	r0
     892:	0f 90       	pop	r0
     894:	0f 90       	pop	r0
     896:	0f 90       	pop	r0
     898:	0f 90       	pop	r0
     89a:	0f 90       	pop	r0
     89c:	99 23       	and	r25, r25
     89e:	34 f4       	brge	.+12     	; 0x8ac <io_controller+0x300>
								str = "Formatting Error\n\r";
     8a0:	06 e3       	ldi	r16, 0x36	; 54
     8a2:	12 e0       	ldi	r17, 0x02	; 2
     8a4:	03 c0       	rjmp	.+6      	; 0x8ac <io_controller+0x300>
					//do operating mode things
					if (!strcmp(opcode, "ST")) {
						//set temperature
						target_temp = atoi(operand);
						if (target_temp < 0 || target_temp > 125) {
							str = "Invalid temperature selection. Sucks to suck.\n\r";
     8a6:	83 01       	movw	r16, r6
     8a8:	01 c0       	rjmp	.+2      	; 0x8ac <io_controller+0x300>
     8aa:	83 01       	movw	r16, r6
							formatStr = "Set target temperature to %d degrees Celsius\n\r";
							if (sprintf(str,formatStr,target_temp) < 0) {
								str = "Formatting Error\n\r";
							}
						}
						Serial_write_string(0,str,strlen(str));
     8ac:	f8 01       	movw	r30, r16
     8ae:	01 90       	ld	r0, Z+
     8b0:	00 20       	and	r0, r0
     8b2:	e9 f7       	brne	.-6      	; 0x8ae <io_controller+0x302>
     8b4:	31 97       	sbiw	r30, 0x01	; 1
     8b6:	af 01       	movw	r20, r30
     8b8:	40 1b       	sub	r20, r16
     8ba:	51 0b       	sbc	r21, r17
     8bc:	b8 01       	movw	r22, r16
     8be:	80 e0       	ldi	r24, 0x00	; 0
     8c0:	90 e0       	ldi	r25, 0x00	; 0
     8c2:	47 d3       	rcall	.+1678   	; 0xf52 <Serial_write_string>
     8c4:	7a c0       	rjmp	.+244    	; 0x9ba <io_controller+0x40e>
					} else if (!strcmp(opcode, "SR")) {
     8c6:	64 ed       	ldi	r22, 0xD4	; 212
     8c8:	73 e0       	ldi	r23, 0x03	; 3
     8ca:	ce 01       	movw	r24, r28
     8cc:	06 96       	adiw	r24, 0x06	; 6
     8ce:	52 d5       	rcall	.+2724   	; 0x1374 <strcmp>
     8d0:	89 2b       	or	r24, r25
     8d2:	81 f4       	brne	.+32     	; 0x8f4 <io_controller+0x348>
						//set sample rate
						sample_rate = operand[0];
     8d4:	40 92 05 02 	sts	0x0205, r4
						format="Last temp: %x raw hex";
     8d8:	90 92 04 02 	sts	0x0204, r9
     8dc:	80 92 03 02 	sts	0x0203, r8
						str = "Set format to Celsius Hexadecimal\n\r";
						Serial_write_string(0,str,strlen(str));
     8e0:	43 e2       	ldi	r20, 0x23	; 35
     8e2:	50 e0       	ldi	r21, 0x00	; 0
     8e4:	63 ec       	ldi	r22, 0xC3	; 195
     8e6:	72 e0       	ldi	r23, 0x02	; 2
     8e8:	80 e0       	ldi	r24, 0x00	; 0
     8ea:	90 e0       	ldi	r25, 0x00	; 0
     8ec:	32 d3       	rcall	.+1636   	; 0xf52 <Serial_write_string>
						Serial_write_string(0,str,strlen(str));
					} else if (!strcmp(opcode, "SR")) {
						//set sample rate
						sample_rate = operand[0];
						format="Last temp: %x raw hex";
						str = "Set format to Celsius Hexadecimal\n\r";
     8ee:	03 ec       	ldi	r16, 0xC3	; 195
     8f0:	12 e0       	ldi	r17, 0x02	; 2
     8f2:	63 c0       	rjmp	.+198    	; 0x9ba <io_controller+0x40e>
						Serial_write_string(0,str,strlen(str));
					} else if (!strcmp(opcode, "SD")) {
     8f4:	6d ee       	ldi	r22, 0xED	; 237
     8f6:	73 e0       	ldi	r23, 0x03	; 3
     8f8:	ce 01       	movw	r24, r28
     8fa:	06 96       	adiw	r24, 0x06	; 6
     8fc:	3b d5       	rcall	.+2678   	; 0x1374 <strcmp>
     8fe:	89 2b       	or	r24, r25
     900:	09 f0       	breq	.+2      	; 0x904 <io_controller+0x358>
     902:	48 c0       	rjmp	.+144    	; 0x994 <io_controller+0x3e8>
						//set display format
						switch (operand[0]) {
     904:	86 e4       	ldi	r24, 0x46	; 70
     906:	48 16       	cp	r4, r24
     908:	39 f0       	breq	.+14     	; 0x918 <io_controller+0x36c>
     90a:	98 e5       	ldi	r25, 0x58	; 88
     90c:	49 16       	cp	r4, r25
     90e:	41 f1       	breq	.+80     	; 0x960 <io_controller+0x3b4>
     910:	83 e4       	ldi	r24, 0x43	; 67
     912:	48 12       	cpse	r4, r24
     914:	35 c0       	rjmp	.+106    	; 0x980 <io_controller+0x3d4>
     916:	12 c0       	rjmp	.+36     	; 0x93c <io_controller+0x390>
							case 'F':
								format = "Last temp: %d degrees Fahrenheit\n\r";
     918:	80 ef       	ldi	r24, 0xF0	; 240
     91a:	93 e0       	ldi	r25, 0x03	; 3
     91c:	90 93 04 02 	sts	0x0204, r25
     920:	80 93 03 02 	sts	0x0203, r24
								celsius = 0;
     924:	10 92 02 02 	sts	0x0202, r1
								str = "Set format to Fahrenheit\n\r";
								Serial_write_string(0,str,strlen(str));
     928:	4a e1       	ldi	r20, 0x1A	; 26
     92a:	50 e0       	ldi	r21, 0x00	; 0
     92c:	6d ef       	ldi	r22, 0xFD	; 253
     92e:	72 e0       	ldi	r23, 0x02	; 2
     930:	80 e0       	ldi	r24, 0x00	; 0
     932:	90 e0       	ldi	r25, 0x00	; 0
     934:	0e d3       	rcall	.+1564   	; 0xf52 <Serial_write_string>
						//set display format
						switch (operand[0]) {
							case 'F':
								format = "Last temp: %d degrees Fahrenheit\n\r";
								celsius = 0;
								str = "Set format to Fahrenheit\n\r";
     936:	0d ef       	ldi	r16, 0xFD	; 253
     938:	12 e0       	ldi	r17, 0x02	; 2
								Serial_write_string(0,str,strlen(str));
								break;
     93a:	3f c0       	rjmp	.+126    	; 0x9ba <io_controller+0x40e>
							case 'C':
								format = "Last temp: %d degrees Celsius\n\r";
     93c:	83 e1       	ldi	r24, 0x13	; 19
     93e:	94 e0       	ldi	r25, 0x04	; 4
     940:	90 93 04 02 	sts	0x0204, r25
     944:	80 93 03 02 	sts	0x0203, r24
								celsius = 1;
     948:	50 92 02 02 	sts	0x0202, r5
								str = "Set format to Celsius\n\r";
								Serial_write_string(0,str,strlen(str));
     94c:	47 e1       	ldi	r20, 0x17	; 23
     94e:	50 e0       	ldi	r21, 0x00	; 0
     950:	6f e2       	ldi	r22, 0x2F	; 47
     952:	73 e0       	ldi	r23, 0x03	; 3
     954:	80 e0       	ldi	r24, 0x00	; 0
     956:	90 e0       	ldi	r25, 0x00	; 0
     958:	fc d2       	rcall	.+1528   	; 0xf52 <Serial_write_string>
								Serial_write_string(0,str,strlen(str));
								break;
							case 'C':
								format = "Last temp: %d degrees Celsius\n\r";
								celsius = 1;
								str = "Set format to Celsius\n\r";
     95a:	0f e2       	ldi	r16, 0x2F	; 47
     95c:	13 e0       	ldi	r17, 0x03	; 3
								Serial_write_string(0,str,strlen(str));
								break;
     95e:	2d c0       	rjmp	.+90     	; 0x9ba <io_controller+0x40e>
							case 'X':
								celsius = 1;
     960:	50 92 02 02 	sts	0x0202, r5
								format="Last temp: %x raw hex";
     964:	90 92 04 02 	sts	0x0204, r9
     968:	80 92 03 02 	sts	0x0203, r8
								str = "Set format to Celsius Hexadecimal\n\r";
								Serial_write_string(0,str,strlen(str));
     96c:	43 e2       	ldi	r20, 0x23	; 35
     96e:	50 e0       	ldi	r21, 0x00	; 0
     970:	63 ec       	ldi	r22, 0xC3	; 195
     972:	72 e0       	ldi	r23, 0x02	; 2
     974:	80 e0       	ldi	r24, 0x00	; 0
     976:	90 e0       	ldi	r25, 0x00	; 0
     978:	ec d2       	rcall	.+1496   	; 0xf52 <Serial_write_string>
								Serial_write_string(0,str,strlen(str));
								break;
							case 'X':
								celsius = 1;
								format="Last temp: %x raw hex";
								str = "Set format to Celsius Hexadecimal\n\r";
     97a:	03 ec       	ldi	r16, 0xC3	; 195
     97c:	12 e0       	ldi	r17, 0x02	; 2
								Serial_write_string(0,str,strlen(str));
								break;
     97e:	1d c0       	rjmp	.+58     	; 0x9ba <io_controller+0x40e>
							default:
								str = "Unrecognized format\n\r";
								Serial_write_string(0,str,strlen(str));
     980:	45 e1       	ldi	r20, 0x15	; 21
     982:	50 e0       	ldi	r21, 0x00	; 0
     984:	67 ee       	ldi	r22, 0xE7	; 231
     986:	72 e0       	ldi	r23, 0x02	; 2
     988:	80 e0       	ldi	r24, 0x00	; 0
     98a:	90 e0       	ldi	r25, 0x00	; 0
     98c:	e2 d2       	rcall	.+1476   	; 0xf52 <Serial_write_string>
								format="Last temp: %x raw hex";
								str = "Set format to Celsius Hexadecimal\n\r";
								Serial_write_string(0,str,strlen(str));
								break;
							default:
								str = "Unrecognized format\n\r";
     98e:	07 ee       	ldi	r16, 0xE7	; 231
     990:	12 e0       	ldi	r17, 0x02	; 2
								Serial_write_string(0,str,strlen(str));
								break;
     992:	13 c0       	rjmp	.+38     	; 0x9ba <io_controller+0x40e>
						}
					} else {
						str = "Unrecognized command\n\r";
						Serial_write_string(0,str,strlen(str));
     994:	46 e1       	ldi	r20, 0x16	; 22
     996:	50 e0       	ldi	r21, 0x00	; 0
     998:	68 e1       	ldi	r22, 0x18	; 24
     99a:	73 e0       	ldi	r23, 0x03	; 3
     99c:	80 e0       	ldi	r24, 0x00	; 0
     99e:	90 e0       	ldi	r25, 0x00	; 0
     9a0:	d8 d2       	rcall	.+1456   	; 0xf52 <Serial_write_string>
								str = "Unrecognized format\n\r";
								Serial_write_string(0,str,strlen(str));
								break;
						}
					} else {
						str = "Unrecognized command\n\r";
     9a2:	08 e1       	ldi	r16, 0x18	; 24
     9a4:	13 e0       	ldi	r17, 0x03	; 3
     9a6:	09 c0       	rjmp	.+18     	; 0x9ba <io_controller+0x40e>
				}
			}

		} else {
			str = "Error reading command\n\r";
			Serial_write_string(0,str,strlen(str));
     9a8:	47 e1       	ldi	r20, 0x17	; 23
     9aa:	50 e0       	ldi	r21, 0x00	; 0
     9ac:	63 e9       	ldi	r22, 0x93	; 147
     9ae:	72 e0       	ldi	r23, 0x02	; 2
     9b0:	80 e0       	ldi	r24, 0x00	; 0
     9b2:	90 e0       	ldi	r25, 0x00	; 0
     9b4:	ce d2       	rcall	.+1436   	; 0xf52 <Serial_write_string>
					}
				}
			}

		} else {
			str = "Error reading command\n\r";
     9b6:	03 e9       	ldi	r16, 0x93	; 147
     9b8:	12 e0       	ldi	r17, 0x02	; 2
			Serial_write_string(0,str,strlen(str));
		}
		x_delay(1000);
     9ba:	88 ee       	ldi	r24, 0xE8	; 232
     9bc:	93 e0       	ldi	r25, 0x03	; 3
     9be:	de dc       	rcall	.-1604   	; 0x37c <x_delay>
	}
     9c0:	30 ce       	rjmp	.-928    	; 0x622 <io_controller+0x76>

000009c2 <box_controller>:
/*
 * Controller for the box
 */
void box_controller(void) {
	//TODO: blink LED
	DDRB |= 0x1 << PB4;
     9c2:	24 9a       	sbi	0x04, 4	; 4
	//PORTB |= 0x1 << PB4;
	while(1) {
		x_delay(sample_rate);
		//_delay_ms(1000);
		PORTB ^= 0x10;
     9c4:	c0 e1       	ldi	r28, 0x10	; 16
void box_controller(void) {
	//TODO: blink LED
	DDRB |= 0x1 << PB4;
	//PORTB |= 0x1 << PB4;
	while(1) {
		x_delay(sample_rate);
     9c6:	80 91 05 02 	lds	r24, 0x0205
     9ca:	90 e0       	ldi	r25, 0x00	; 0
     9cc:	d7 dc       	rcall	.-1618   	; 0x37c <x_delay>
		//_delay_ms(1000);
		PORTB ^= 0x10;
     9ce:	85 b1       	in	r24, 0x05	; 5
     9d0:	8c 27       	eor	r24, r28
     9d2:	85 b9       	out	0x05, r24	; 5
		//x_yield();
	}
     9d4:	f8 cf       	rjmp	.-16     	; 0x9c6 <box_controller+0x4>

000009d6 <sensor_controller>:
/*
 * Polls sensor for temperature every second
 */
void sensor_controller(void) {
	//Check for sensor presence
	char presence = ow_reset();
     9d6:	34 dd       	rcall	.-1432   	; 0x440 <ow_reset>
	//keep checking until we detect a sensor
	while (! presence) {
     9d8:	81 11       	cpse	r24, r1
     9da:	05 c0       	rjmp	.+10     	; 0x9e6 <sensor_controller+0x10>
		presence = ow_reset();
     9dc:	31 dd       	rcall	.-1438   	; 0x440 <ow_reset>
     9de:	c8 2f       	mov	r28, r24
		//give other threads a chance to act during this process
		x_yield();
     9e0:	a2 db       	rcall	.-2236   	; 0x126 <x_yield>
 */
void sensor_controller(void) {
	//Check for sensor presence
	char presence = ow_reset();
	//keep checking until we detect a sensor
	while (! presence) {
     9e2:	cc 23       	and	r28, r28
     9e4:	d9 f3       	breq	.-10     	; 0x9dc <sensor_controller+0x6>
		//give other threads a chance to act during this process
		x_yield();
	}
	//monitor temperature
	while(1) {
		last_temp = ow_read_temperature();
     9e6:	97 dd       	rcall	.-1234   	; 0x516 <ow_read_temperature>
     9e8:	80 93 52 04 	sts	0x0452, r24
		x_delay(sample_rate);
     9ec:	80 91 05 02 	lds	r24, 0x0205
     9f0:	90 e0       	ldi	r25, 0x00	; 0
     9f2:	c4 dc       	rcall	.-1656   	; 0x37c <x_delay>
	}
     9f4:	f8 cf       	rjmp	.-16     	; 0x9e6 <sensor_controller+0x10>

000009f6 <main>:
}

int main(void)
{
	x_init();
     9f6:	4b dc       	rcall	.-1898   	; 0x28e <x_init>
	//Launch main three threads
	x_new(2, io_controller, 1);
     9f8:	41 e0       	ldi	r20, 0x01	; 1
     9fa:	66 ed       	ldi	r22, 0xD6	; 214
     9fc:	72 e0       	ldi	r23, 0x02	; 2
     9fe:	82 e0       	ldi	r24, 0x02	; 2
     a00:	05 dc       	rcall	.-2038   	; 0x20c <x_new>
	x_new(1, sensor_controller, 1);
     a02:	41 e0       	ldi	r20, 0x01	; 1
     a04:	6b ee       	ldi	r22, 0xEB	; 235
     a06:	74 e0       	ldi	r23, 0x04	; 4
     a08:	81 e0       	ldi	r24, 0x01	; 1
     a0a:	00 dc       	rcall	.-2048   	; 0x20c <x_new>
	x_new(0, box_controller, 1); //replaces main with box control logic
     a0c:	41 e0       	ldi	r20, 0x01	; 1
     a0e:	61 ee       	ldi	r22, 0xE1	; 225
     a10:	74 e0       	ldi	r23, 0x04	; 4
     a12:	80 e0       	ldi	r24, 0x00	; 0
     a14:	fb db       	rcall	.-2058   	; 0x20c <x_new>
}
     a16:	80 e0       	ldi	r24, 0x00	; 0
     a18:	90 e0       	ldi	r25, 0x00	; 0
     a1a:	08 95       	ret

00000a1c <Q_putc>:

QCB queues[QCB_MAX_COUNT];
bool occupied[8] = {false, false, false, false, false, false, false, false};

byte Q_putc(byte qid, char data)
{
     a1c:	cf 93       	push	r28
     a1e:	df 93       	push	r29
	QCB *qcb = &queues[qid];
     a20:	90 e0       	ldi	r25, 0x00	; 0
	if (qcb->flags != 1)
     a22:	fc 01       	movw	r30, r24
     a24:	ee 0f       	add	r30, r30
     a26:	ff 1f       	adc	r31, r31
     a28:	ee 0f       	add	r30, r30
     a2a:	ff 1f       	adc	r31, r31
     a2c:	ee 0f       	add	r30, r30
     a2e:	ff 1f       	adc	r31, r31
     a30:	eb 56       	subi	r30, 0x6B	; 107
     a32:	f3 4f       	sbci	r31, 0xF3	; 243
     a34:	23 81       	ldd	r18, Z+3	; 0x03
     a36:	21 30       	cpi	r18, 0x01	; 1
     a38:	09 f4       	brne	.+2      	; 0xa3c <Q_putc+0x20>
     a3a:	58 c0       	rjmp	.+176    	; 0xaec <Q_putc+0xd0>
	{
		ATOMIC_BLOCK(ATOMIC_RESTORESTATE)
     a3c:	af b7       	in	r26, 0x3f	; 63
    return 1;
}

static __inline__ uint8_t __iCliRetVal(void)
{
    cli();
     a3e:	f8 94       	cli
		{
			*(qcb->pQ + qcb->in) = data;
     a40:	fc 01       	movw	r30, r24
     a42:	ee 0f       	add	r30, r30
     a44:	ff 1f       	adc	r31, r31
     a46:	ee 0f       	add	r30, r30
     a48:	ff 1f       	adc	r31, r31
     a4a:	ee 0f       	add	r30, r30
     a4c:	ff 1f       	adc	r31, r31
     a4e:	eb 56       	subi	r30, 0x6B	; 107
     a50:	f3 4f       	sbci	r31, 0xF3	; 243
     a52:	20 81       	ld	r18, Z
     a54:	c6 81       	ldd	r28, Z+6	; 0x06
     a56:	d7 81       	ldd	r29, Z+7	; 0x07
     a58:	c2 0f       	add	r28, r18
     a5a:	d1 1d       	adc	r29, r1
     a5c:	68 83       	st	Y, r22
			qcb->available += 1;
     a5e:	24 81       	ldd	r18, Z+4	; 0x04
     a60:	35 81       	ldd	r19, Z+5	; 0x05
     a62:	2f 5f       	subi	r18, 0xFF	; 255
     a64:	3f 4f       	sbci	r19, 0xFF	; 255
     a66:	35 83       	std	Z+5, r19	; 0x05
     a68:	24 83       	std	Z+4, r18	; 0x04
			if (qcb->flags == 2)
     a6a:	23 81       	ldd	r18, Z+3	; 0x03
     a6c:	22 30       	cpi	r18, 0x02	; 2
     a6e:	51 f4       	brne	.+20     	; 0xa84 <Q_putc+0x68>
			{
				qcb->flags = 0;
     a70:	fc 01       	movw	r30, r24
     a72:	ee 0f       	add	r30, r30
     a74:	ff 1f       	adc	r31, r31
     a76:	ee 0f       	add	r30, r30
     a78:	ff 1f       	adc	r31, r31
     a7a:	ee 0f       	add	r30, r30
     a7c:	ff 1f       	adc	r31, r31
     a7e:	eb 56       	subi	r30, 0x6B	; 107
     a80:	f3 4f       	sbci	r31, 0xF3	; 243
     a82:	13 82       	std	Z+3, r1	; 0x03
			}
			
			if (((qcb->in + 1) & qcb->smask) != qcb->out)
     a84:	fc 01       	movw	r30, r24
     a86:	ee 0f       	add	r30, r30
     a88:	ff 1f       	adc	r31, r31
     a8a:	ee 0f       	add	r30, r30
     a8c:	ff 1f       	adc	r31, r31
     a8e:	ee 0f       	add	r30, r30
     a90:	ff 1f       	adc	r31, r31
     a92:	eb 56       	subi	r30, 0x6B	; 107
     a94:	f3 4f       	sbci	r31, 0xF3	; 243
     a96:	30 81       	ld	r19, Z
     a98:	22 81       	ldd	r18, Z+2	; 0x02
     a9a:	63 2f       	mov	r22, r19
     a9c:	70 e0       	ldi	r23, 0x00	; 0
     a9e:	6f 5f       	subi	r22, 0xFF	; 255
     aa0:	7f 4f       	sbci	r23, 0xFF	; 255
     aa2:	42 2f       	mov	r20, r18
     aa4:	50 e0       	ldi	r21, 0x00	; 0
     aa6:	64 23       	and	r22, r20
     aa8:	75 23       	and	r23, r21
     aaa:	41 81       	ldd	r20, Z+1	; 0x01
     aac:	50 e0       	ldi	r21, 0x00	; 0
     aae:	64 17       	cp	r22, r20
     ab0:	75 07       	cpc	r23, r21
     ab2:	69 f0       	breq	.+26     	; 0xace <Q_putc+0xb2>
			{
				qcb->in = (qcb->in + 1) & qcb->smask;
     ab4:	88 0f       	add	r24, r24
     ab6:	99 1f       	adc	r25, r25
     ab8:	88 0f       	add	r24, r24
     aba:	99 1f       	adc	r25, r25
     abc:	88 0f       	add	r24, r24
     abe:	99 1f       	adc	r25, r25
     ac0:	fc 01       	movw	r30, r24
     ac2:	eb 56       	subi	r30, 0x6B	; 107
     ac4:	f3 4f       	sbci	r31, 0xF3	; 243
     ac6:	3f 5f       	subi	r19, 0xFF	; 255
     ac8:	23 23       	and	r18, r19
     aca:	20 83       	st	Z, r18
     acc:	11 c0       	rjmp	.+34     	; 0xaf0 <Q_putc+0xd4>
			}
			else
			{
				qcb->in = (qcb->in + 1) & qcb->smask;
     ace:	88 0f       	add	r24, r24
     ad0:	99 1f       	adc	r25, r25
     ad2:	88 0f       	add	r24, r24
     ad4:	99 1f       	adc	r25, r25
     ad6:	88 0f       	add	r24, r24
     ad8:	99 1f       	adc	r25, r25
     ada:	fc 01       	movw	r30, r24
     adc:	eb 56       	subi	r30, 0x6B	; 107
     ade:	f3 4f       	sbci	r31, 0xF3	; 243
     ae0:	3f 5f       	subi	r19, 0xFF	; 255
     ae2:	23 23       	and	r18, r19
     ae4:	20 83       	st	Z, r18
				qcb->flags = 1;
     ae6:	81 e0       	ldi	r24, 0x01	; 1
     ae8:	83 83       	std	Z+3, r24	; 0x03
     aea:	02 c0       	rjmp	.+4      	; 0xaf0 <Q_putc+0xd4>
		}
		return 1;
	}
	else
	{
		return 0;
     aec:	80 e0       	ldi	r24, 0x00	; 0
     aee:	02 c0       	rjmp	.+4      	; 0xaf4 <Q_putc+0xd8>
    (void)__s;
}

static __inline__ void __iRestore(const  uint8_t *__s)
{
    SREG = *__s;
     af0:	af bf       	out	0x3f, r26	; 63
			{
				qcb->in = (qcb->in + 1) & qcb->smask;
				qcb->flags = 1;
			}
		}
		return 1;
     af2:	81 e0       	ldi	r24, 0x01	; 1
	}
	else
	{
		return 0;
	}
}
     af4:	df 91       	pop	r29
     af6:	cf 91       	pop	r28
     af8:	08 95       	ret

00000afa <Q_getc>:

byte Q_getc(byte qid, char *pdata)
{
     afa:	cf 93       	push	r28
     afc:	df 93       	push	r29
	QCB *qcb = &queues[qid];
     afe:	90 e0       	ldi	r25, 0x00	; 0
	if (qcb->flags != 2)
     b00:	fc 01       	movw	r30, r24
     b02:	ee 0f       	add	r30, r30
     b04:	ff 1f       	adc	r31, r31
     b06:	ee 0f       	add	r30, r30
     b08:	ff 1f       	adc	r31, r31
     b0a:	ee 0f       	add	r30, r30
     b0c:	ff 1f       	adc	r31, r31
     b0e:	eb 56       	subi	r30, 0x6B	; 107
     b10:	f3 4f       	sbci	r31, 0xF3	; 243
     b12:	23 81       	ldd	r18, Z+3	; 0x03
     b14:	22 30       	cpi	r18, 0x02	; 2
     b16:	09 f4       	brne	.+2      	; 0xb1a <Q_getc+0x20>
     b18:	5a c0       	rjmp	.+180    	; 0xbce <Q_getc+0xd4>
	{
		ATOMIC_BLOCK(ATOMIC_RESTORESTATE)
     b1a:	af b7       	in	r26, 0x3f	; 63
    return 1;
}

static __inline__ uint8_t __iCliRetVal(void)
{
    cli();
     b1c:	f8 94       	cli
		{
			*pdata = *(qcb->pQ + qcb->out);
     b1e:	fc 01       	movw	r30, r24
     b20:	ee 0f       	add	r30, r30
     b22:	ff 1f       	adc	r31, r31
     b24:	ee 0f       	add	r30, r30
     b26:	ff 1f       	adc	r31, r31
     b28:	ee 0f       	add	r30, r30
     b2a:	ff 1f       	adc	r31, r31
     b2c:	eb 56       	subi	r30, 0x6B	; 107
     b2e:	f3 4f       	sbci	r31, 0xF3	; 243
     b30:	21 81       	ldd	r18, Z+1	; 0x01
     b32:	c6 81       	ldd	r28, Z+6	; 0x06
     b34:	d7 81       	ldd	r29, Z+7	; 0x07
     b36:	c2 0f       	add	r28, r18
     b38:	d1 1d       	adc	r29, r1
     b3a:	28 81       	ld	r18, Y
     b3c:	eb 01       	movw	r28, r22
     b3e:	28 83       	st	Y, r18
			qcb->available -= 1;
     b40:	24 81       	ldd	r18, Z+4	; 0x04
     b42:	35 81       	ldd	r19, Z+5	; 0x05
     b44:	21 50       	subi	r18, 0x01	; 1
     b46:	31 09       	sbc	r19, r1
     b48:	35 83       	std	Z+5, r19	; 0x05
     b4a:	24 83       	std	Z+4, r18	; 0x04
			if (qcb->flags == 1)
     b4c:	23 81       	ldd	r18, Z+3	; 0x03
     b4e:	21 30       	cpi	r18, 0x01	; 1
     b50:	51 f4       	brne	.+20     	; 0xb66 <Q_getc+0x6c>
			{
				qcb->flags = 0;
     b52:	fc 01       	movw	r30, r24
     b54:	ee 0f       	add	r30, r30
     b56:	ff 1f       	adc	r31, r31
     b58:	ee 0f       	add	r30, r30
     b5a:	ff 1f       	adc	r31, r31
     b5c:	ee 0f       	add	r30, r30
     b5e:	ff 1f       	adc	r31, r31
     b60:	eb 56       	subi	r30, 0x6B	; 107
     b62:	f3 4f       	sbci	r31, 0xF3	; 243
     b64:	13 82       	std	Z+3, r1	; 0x03
			}
			
			if (((qcb->out + 1) & qcb->smask) != qcb->in)
     b66:	fc 01       	movw	r30, r24
     b68:	ee 0f       	add	r30, r30
     b6a:	ff 1f       	adc	r31, r31
     b6c:	ee 0f       	add	r30, r30
     b6e:	ff 1f       	adc	r31, r31
     b70:	ee 0f       	add	r30, r30
     b72:	ff 1f       	adc	r31, r31
     b74:	eb 56       	subi	r30, 0x6B	; 107
     b76:	f3 4f       	sbci	r31, 0xF3	; 243
     b78:	31 81       	ldd	r19, Z+1	; 0x01
     b7a:	22 81       	ldd	r18, Z+2	; 0x02
     b7c:	63 2f       	mov	r22, r19
     b7e:	70 e0       	ldi	r23, 0x00	; 0
     b80:	6f 5f       	subi	r22, 0xFF	; 255
     b82:	7f 4f       	sbci	r23, 0xFF	; 255
     b84:	42 2f       	mov	r20, r18
     b86:	50 e0       	ldi	r21, 0x00	; 0
     b88:	64 23       	and	r22, r20
     b8a:	75 23       	and	r23, r21
     b8c:	40 81       	ld	r20, Z
     b8e:	50 e0       	ldi	r21, 0x00	; 0
     b90:	64 17       	cp	r22, r20
     b92:	75 07       	cpc	r23, r21
     b94:	69 f0       	breq	.+26     	; 0xbb0 <Q_getc+0xb6>
			{
				qcb->out = (qcb->out + 1) & qcb->smask;
     b96:	88 0f       	add	r24, r24
     b98:	99 1f       	adc	r25, r25
     b9a:	88 0f       	add	r24, r24
     b9c:	99 1f       	adc	r25, r25
     b9e:	88 0f       	add	r24, r24
     ba0:	99 1f       	adc	r25, r25
     ba2:	fc 01       	movw	r30, r24
     ba4:	eb 56       	subi	r30, 0x6B	; 107
     ba6:	f3 4f       	sbci	r31, 0xF3	; 243
     ba8:	3f 5f       	subi	r19, 0xFF	; 255
     baa:	23 23       	and	r18, r19
     bac:	21 83       	std	Z+1, r18	; 0x01
     bae:	11 c0       	rjmp	.+34     	; 0xbd2 <Q_getc+0xd8>
			}
			else
			{
				qcb->out = (qcb->out + 1) & qcb->smask;
     bb0:	88 0f       	add	r24, r24
     bb2:	99 1f       	adc	r25, r25
     bb4:	88 0f       	add	r24, r24
     bb6:	99 1f       	adc	r25, r25
     bb8:	88 0f       	add	r24, r24
     bba:	99 1f       	adc	r25, r25
     bbc:	fc 01       	movw	r30, r24
     bbe:	eb 56       	subi	r30, 0x6B	; 107
     bc0:	f3 4f       	sbci	r31, 0xF3	; 243
     bc2:	3f 5f       	subi	r19, 0xFF	; 255
     bc4:	23 23       	and	r18, r19
     bc6:	21 83       	std	Z+1, r18	; 0x01
				qcb->flags = 2;
     bc8:	82 e0       	ldi	r24, 0x02	; 2
     bca:	83 83       	std	Z+3, r24	; 0x03
     bcc:	02 c0       	rjmp	.+4      	; 0xbd2 <Q_getc+0xd8>
			}
		}
		return 1;
	}
	return 0;
     bce:	80 e0       	ldi	r24, 0x00	; 0
     bd0:	02 c0       	rjmp	.+4      	; 0xbd6 <Q_getc+0xdc>
    (void)__s;
}

static __inline__ void __iRestore(const  uint8_t *__s)
{
    SREG = *__s;
     bd2:	af bf       	out	0x3f, r26	; 63
			{
				qcb->out = (qcb->out + 1) & qcb->smask;
				qcb->flags = 2;
			}
		}
		return 1;
     bd4:	81 e0       	ldi	r24, 0x01	; 1
	}
	return 0;
}
     bd6:	df 91       	pop	r29
     bd8:	cf 91       	pop	r28
     bda:	08 95       	ret

00000bdc <Q_create>:

uint8_t Q_create(int qsize, char * pbuffer)
{
	if ((qsize <= 0) || (qsize > 256) || (qsize & (qsize - 1)) != 0)
     bdc:	9c 01       	movw	r18, r24
     bde:	21 50       	subi	r18, 0x01	; 1
     be0:	31 09       	sbc	r19, r1
     be2:	2f 3f       	cpi	r18, 0xFF	; 255
     be4:	31 05       	cpc	r19, r1
     be6:	09 f0       	breq	.+2      	; 0xbea <Q_create+0xe>
     be8:	98 f5       	brcc	.+102    	; 0xc50 <Q_create+0x74>
     bea:	28 23       	and	r18, r24
     bec:	39 23       	and	r19, r25
     bee:	23 2b       	or	r18, r19
     bf0:	89 f5       	brne	.+98     	; 0xc54 <Q_create+0x78>
		return -1;
	}
	
	for (int i = 0; i < QCB_MAX_COUNT; i++)
	{
		if (occupied[i] == false)
     bf2:	20 91 53 04 	lds	r18, 0x0453
     bf6:	22 23       	and	r18, r18
     bf8:	41 f0       	breq	.+16     	; 0xc0a <Q_create+0x2e>
     bfa:	e4 e5       	ldi	r30, 0x54	; 84
     bfc:	f4 e0       	ldi	r31, 0x04	; 4
	if ((qsize <= 0) || (qsize > 256) || (qsize & (qsize - 1)) != 0)
	{
		return -1;
	}
	
	for (int i = 0; i < QCB_MAX_COUNT; i++)
     bfe:	21 e0       	ldi	r18, 0x01	; 1
     c00:	30 e0       	ldi	r19, 0x00	; 0
	{
		if (occupied[i] == false)
     c02:	41 91       	ld	r20, Z+
     c04:	41 11       	cpse	r20, r1
     c06:	1d c0       	rjmp	.+58     	; 0xc42 <Q_create+0x66>
     c08:	02 c0       	rjmp	.+4      	; 0xc0e <Q_create+0x32>
     c0a:	20 e0       	ldi	r18, 0x00	; 0
     c0c:	30 e0       	ldi	r19, 0x00	; 0
		{
			queues[i].in = 0;
     c0e:	f9 01       	movw	r30, r18
     c10:	ee 0f       	add	r30, r30
     c12:	ff 1f       	adc	r31, r31
     c14:	ee 0f       	add	r30, r30
     c16:	ff 1f       	adc	r31, r31
     c18:	ee 0f       	add	r30, r30
     c1a:	ff 1f       	adc	r31, r31
     c1c:	eb 56       	subi	r30, 0x6B	; 107
     c1e:	f3 4f       	sbci	r31, 0xF3	; 243
     c20:	10 82       	st	Z, r1
			queues[i].out = 0;
     c22:	11 82       	std	Z+1, r1	; 0x01
			queues[i].smask = qsize - 1;
     c24:	81 50       	subi	r24, 0x01	; 1
     c26:	82 83       	std	Z+2, r24	; 0x02
			queues[i].flags = 2;
     c28:	82 e0       	ldi	r24, 0x02	; 2
     c2a:	83 83       	std	Z+3, r24	; 0x03
			queues[i].available = 0;
     c2c:	15 82       	std	Z+5, r1	; 0x05
     c2e:	14 82       	std	Z+4, r1	; 0x04
			queues[i].pQ = pbuffer;
     c30:	77 83       	std	Z+7, r23	; 0x07
     c32:	66 83       	std	Z+6, r22	; 0x06
			occupied[i] = true;
     c34:	f9 01       	movw	r30, r18
     c36:	ed 5a       	subi	r30, 0xAD	; 173
     c38:	fb 4f       	sbci	r31, 0xFB	; 251
     c3a:	81 e0       	ldi	r24, 0x01	; 1
     c3c:	80 83       	st	Z, r24
			return i;
     c3e:	82 2f       	mov	r24, r18
     c40:	08 95       	ret
	if ((qsize <= 0) || (qsize > 256) || (qsize & (qsize - 1)) != 0)
	{
		return -1;
	}
	
	for (int i = 0; i < QCB_MAX_COUNT; i++)
     c42:	2f 5f       	subi	r18, 0xFF	; 255
     c44:	3f 4f       	sbci	r19, 0xFF	; 255
     c46:	28 30       	cpi	r18, 0x08	; 8
     c48:	31 05       	cpc	r19, r1
     c4a:	d9 f6       	brne	.-74     	; 0xc02 <Q_create+0x26>
			queues[i].pQ = pbuffer;
			occupied[i] = true;
			return i;
		}
	}
	return -1;
     c4c:	8f ef       	ldi	r24, 0xFF	; 255
     c4e:	08 95       	ret

uint8_t Q_create(int qsize, char * pbuffer)
{
	if ((qsize <= 0) || (qsize > 256) || (qsize & (qsize - 1)) != 0)
	{
		return -1;
     c50:	8f ef       	ldi	r24, 0xFF	; 255
     c52:	08 95       	ret
     c54:	8f ef       	ldi	r24, 0xFF	; 255
			occupied[i] = true;
			return i;
		}
	}
	return -1;
}
     c56:	08 95       	ret

00000c58 <Serial_open>:
}

int Serial_available(int port)
{
	return Q_used(ports[port].rx_qid);
}
     c58:	6f 92       	push	r6
     c5a:	7f 92       	push	r7
     c5c:	8f 92       	push	r8
     c5e:	9f 92       	push	r9
     c60:	af 92       	push	r10
     c62:	bf 92       	push	r11
     c64:	cf 92       	push	r12
     c66:	df 92       	push	r13
     c68:	ef 92       	push	r14
     c6a:	ff 92       	push	r15
     c6c:	1f 93       	push	r17
     c6e:	cf 93       	push	r28
     c70:	df 93       	push	r29
     c72:	84 30       	cpi	r24, 0x04	; 4
     c74:	91 05       	cpc	r25, r1
     c76:	08 f0       	brcs	.+2      	; 0xc7a <Serial_open+0x22>
     c78:	e1 c0       	rjmp	.+450    	; 0xe3c <Serial_open+0x1e4>
     c7a:	12 2f       	mov	r17, r18
     c7c:	6a 01       	movw	r12, r20
     c7e:	7b 01       	movw	r14, r22
     c80:	3c 01       	movw	r6, r24
     c82:	4c 01       	movw	r8, r24
     c84:	88 0c       	add	r8, r8
     c86:	99 1c       	adc	r9, r9
     c88:	5c 01       	movw	r10, r24
     c8a:	aa 0c       	add	r10, r10
     c8c:	bb 1c       	adc	r11, r11
     c8e:	aa 0c       	add	r10, r10
     c90:	bb 1c       	adc	r11, r11
     c92:	aa 0c       	add	r10, r10
     c94:	bb 1c       	adc	r11, r11
     c96:	c4 01       	movw	r24, r8
     c98:	8a 0d       	add	r24, r10
     c9a:	9b 1d       	adc	r25, r11
     c9c:	ec 01       	movw	r28, r24
     c9e:	c2 5f       	subi	r28, 0xF2	; 242
     ca0:	dd 4f       	sbci	r29, 0xFD	; 253
     ca2:	6a 81       	ldd	r22, Y+2	; 0x02
     ca4:	7b 81       	ldd	r23, Y+3	; 0x03
     ca6:	8c 81       	ldd	r24, Y+4	; 0x04
     ca8:	9d 81       	ldd	r25, Y+5	; 0x05
     caa:	98 df       	rcall	.-208    	; 0xbdc <Q_create>
     cac:	88 83       	st	Y, r24
     cae:	6e 81       	ldd	r22, Y+6	; 0x06
     cb0:	7f 81       	ldd	r23, Y+7	; 0x07
     cb2:	88 85       	ldd	r24, Y+8	; 0x08
     cb4:	99 85       	ldd	r25, Y+9	; 0x09
     cb6:	92 df       	rcall	.-220    	; 0xbdc <Q_create>
     cb8:	89 83       	std	Y+1, r24	; 0x01
     cba:	f4 01       	movw	r30, r8
     cbc:	ea 5f       	subi	r30, 0xFA	; 250
     cbe:	fd 4f       	sbci	r31, 0xFD	; 253
     cc0:	01 90       	ld	r0, Z+
     cc2:	f0 81       	ld	r31, Z
     cc4:	e0 2d       	mov	r30, r0
     cc6:	80 81       	ld	r24, Z
     cc8:	82 60       	ori	r24, 0x02	; 2
     cca:	80 83       	st	Z, r24
     ccc:	80 e8       	ldi	r24, 0x80	; 128
     cce:	c8 16       	cp	r12, r24
     cd0:	80 e7       	ldi	r24, 0x70	; 112
     cd2:	d8 06       	cpc	r13, r24
     cd4:	e1 04       	cpc	r14, r1
     cd6:	f1 04       	cpc	r15, r1
     cd8:	09 f4       	brne	.+2      	; 0xcdc <Serial_open+0x84>
     cda:	73 c0       	rjmp	.+230    	; 0xdc2 <Serial_open+0x16a>
     cdc:	54 f5       	brge	.+84     	; 0xd32 <Serial_open+0xda>
     cde:	80 e8       	ldi	r24, 0x80	; 128
     ce0:	c8 16       	cp	r12, r24
     ce2:	85 e2       	ldi	r24, 0x25	; 37
     ce4:	d8 06       	cpc	r13, r24
     ce6:	e1 04       	cpc	r14, r1
     ce8:	f1 04       	cpc	r15, r1
     cea:	09 f4       	brne	.+2      	; 0xcee <Serial_open+0x96>
     cec:	5b c0       	rjmp	.+182    	; 0xda4 <Serial_open+0x14c>
     cee:	8c f4       	brge	.+34     	; 0xd12 <Serial_open+0xba>
     cf0:	80 e6       	ldi	r24, 0x60	; 96
     cf2:	c8 16       	cp	r12, r24
     cf4:	89 e0       	ldi	r24, 0x09	; 9
     cf6:	d8 06       	cpc	r13, r24
     cf8:	e1 04       	cpc	r14, r1
     cfa:	f1 04       	cpc	r15, r1
     cfc:	09 f4       	brne	.+2      	; 0xd00 <Serial_open+0xa8>
     cfe:	48 c0       	rjmp	.+144    	; 0xd90 <Serial_open+0x138>
     d00:	80 ec       	ldi	r24, 0xC0	; 192
     d02:	c8 16       	cp	r12, r24
     d04:	82 e1       	ldi	r24, 0x12	; 18
     d06:	d8 06       	cpc	r13, r24
     d08:	e1 04       	cpc	r14, r1
     d0a:	f1 04       	cpc	r15, r1
     d0c:	09 f4       	brne	.+2      	; 0xd10 <Serial_open+0xb8>
     d0e:	45 c0       	rjmp	.+138    	; 0xd9a <Serial_open+0x142>
     d10:	7b c0       	rjmp	.+246    	; 0xe08 <Serial_open+0x1b0>
     d12:	80 e4       	ldi	r24, 0x40	; 64
     d14:	c8 16       	cp	r12, r24
     d16:	88 e3       	ldi	r24, 0x38	; 56
     d18:	d8 06       	cpc	r13, r24
     d1a:	e1 04       	cpc	r14, r1
     d1c:	f1 04       	cpc	r15, r1
     d1e:	09 f4       	brne	.+2      	; 0xd22 <Serial_open+0xca>
     d20:	46 c0       	rjmp	.+140    	; 0xdae <Serial_open+0x156>
     d22:	c1 14       	cp	r12, r1
     d24:	8b e4       	ldi	r24, 0x4B	; 75
     d26:	d8 06       	cpc	r13, r24
     d28:	e1 04       	cpc	r14, r1
     d2a:	f1 04       	cpc	r15, r1
     d2c:	09 f4       	brne	.+2      	; 0xd30 <Serial_open+0xd8>
     d2e:	44 c0       	rjmp	.+136    	; 0xdb8 <Serial_open+0x160>
     d30:	6b c0       	rjmp	.+214    	; 0xe08 <Serial_open+0x1b0>
     d32:	c1 14       	cp	r12, r1
     d34:	8c e2       	ldi	r24, 0x2C	; 44
     d36:	d8 06       	cpc	r13, r24
     d38:	81 e0       	ldi	r24, 0x01	; 1
     d3a:	e8 06       	cpc	r14, r24
     d3c:	f1 04       	cpc	r15, r1
     d3e:	09 f4       	brne	.+2      	; 0xd42 <Serial_open+0xea>
     d40:	4f c0       	rjmp	.+158    	; 0xde0 <Serial_open+0x188>
     d42:	6c f4       	brge	.+26     	; 0xd5e <Serial_open+0x106>
     d44:	c1 14       	cp	r12, r1
     d46:	86 e9       	ldi	r24, 0x96	; 150
     d48:	d8 06       	cpc	r13, r24
     d4a:	e1 04       	cpc	r14, r1
     d4c:	f1 04       	cpc	r15, r1
     d4e:	f1 f1       	breq	.+124    	; 0xdcc <Serial_open+0x174>
     d50:	c1 14       	cp	r12, r1
     d52:	81 ee       	ldi	r24, 0xE1	; 225
     d54:	d8 06       	cpc	r13, r24
     d56:	e1 04       	cpc	r14, r1
     d58:	f1 04       	cpc	r15, r1
     d5a:	e9 f1       	breq	.+122    	; 0xdd6 <Serial_open+0x17e>
     d5c:	55 c0       	rjmp	.+170    	; 0xe08 <Serial_open+0x1b0>
     d5e:	c1 14       	cp	r12, r1
     d60:	84 e8       	ldi	r24, 0x84	; 132
     d62:	d8 06       	cpc	r13, r24
     d64:	83 e0       	ldi	r24, 0x03	; 3
     d66:	e8 06       	cpc	r14, r24
     d68:	f1 04       	cpc	r15, r1
     d6a:	09 f4       	brne	.+2      	; 0xd6e <Serial_open+0x116>
     d6c:	43 c0       	rjmp	.+134    	; 0xdf4 <Serial_open+0x19c>
     d6e:	80 e9       	ldi	r24, 0x90	; 144
     d70:	c8 16       	cp	r12, r24
     d72:	80 ed       	ldi	r24, 0xD0	; 208
     d74:	d8 06       	cpc	r13, r24
     d76:	83 e0       	ldi	r24, 0x03	; 3
     d78:	e8 06       	cpc	r14, r24
     d7a:	f1 04       	cpc	r15, r1
     d7c:	09 f4       	brne	.+2      	; 0xd80 <Serial_open+0x128>
     d7e:	3f c0       	rjmp	.+126    	; 0xdfe <Serial_open+0x1a6>
     d80:	c1 14       	cp	r12, r1
     d82:	82 ec       	ldi	r24, 0xC2	; 194
     d84:	d8 06       	cpc	r13, r24
     d86:	81 e0       	ldi	r24, 0x01	; 1
     d88:	e8 06       	cpc	r14, r24
     d8a:	f1 04       	cpc	r15, r1
     d8c:	e9 f5       	brne	.+122    	; 0xe08 <Serial_open+0x1b0>
     d8e:	2d c0       	rjmp	.+90     	; 0xdea <Serial_open+0x192>
     d90:	40 e4       	ldi	r20, 0x40	; 64
     d92:	53 e0       	ldi	r21, 0x03	; 3
     d94:	60 e0       	ldi	r22, 0x00	; 0
     d96:	70 e0       	ldi	r23, 0x00	; 0
     d98:	3a c0       	rjmp	.+116    	; 0xe0e <Serial_open+0x1b6>
     d9a:	40 ea       	ldi	r20, 0xA0	; 160
     d9c:	51 e0       	ldi	r21, 0x01	; 1
     d9e:	60 e0       	ldi	r22, 0x00	; 0
     da0:	70 e0       	ldi	r23, 0x00	; 0
     da2:	35 c0       	rjmp	.+106    	; 0xe0e <Serial_open+0x1b6>
     da4:	4f ec       	ldi	r20, 0xCF	; 207
     da6:	50 e0       	ldi	r21, 0x00	; 0
     da8:	60 e0       	ldi	r22, 0x00	; 0
     daa:	70 e0       	ldi	r23, 0x00	; 0
     dac:	30 c0       	rjmp	.+96     	; 0xe0e <Serial_open+0x1b6>
     dae:	4a e8       	ldi	r20, 0x8A	; 138
     db0:	50 e0       	ldi	r21, 0x00	; 0
     db2:	60 e0       	ldi	r22, 0x00	; 0
     db4:	70 e0       	ldi	r23, 0x00	; 0
     db6:	2b c0       	rjmp	.+86     	; 0xe0e <Serial_open+0x1b6>
     db8:	47 e6       	ldi	r20, 0x67	; 103
     dba:	50 e0       	ldi	r21, 0x00	; 0
     dbc:	60 e0       	ldi	r22, 0x00	; 0
     dbe:	70 e0       	ldi	r23, 0x00	; 0
     dc0:	26 c0       	rjmp	.+76     	; 0xe0e <Serial_open+0x1b6>
     dc2:	44 e4       	ldi	r20, 0x44	; 68
     dc4:	50 e0       	ldi	r21, 0x00	; 0
     dc6:	60 e0       	ldi	r22, 0x00	; 0
     dc8:	70 e0       	ldi	r23, 0x00	; 0
     dca:	21 c0       	rjmp	.+66     	; 0xe0e <Serial_open+0x1b6>
     dcc:	43 e3       	ldi	r20, 0x33	; 51
     dce:	50 e0       	ldi	r21, 0x00	; 0
     dd0:	60 e0       	ldi	r22, 0x00	; 0
     dd2:	70 e0       	ldi	r23, 0x00	; 0
     dd4:	1c c0       	rjmp	.+56     	; 0xe0e <Serial_open+0x1b6>
     dd6:	42 e2       	ldi	r20, 0x22	; 34
     dd8:	50 e0       	ldi	r21, 0x00	; 0
     dda:	60 e0       	ldi	r22, 0x00	; 0
     ddc:	70 e0       	ldi	r23, 0x00	; 0
     dde:	17 c0       	rjmp	.+46     	; 0xe0e <Serial_open+0x1b6>
     de0:	49 e1       	ldi	r20, 0x19	; 25
     de2:	50 e0       	ldi	r21, 0x00	; 0
     de4:	60 e0       	ldi	r22, 0x00	; 0
     de6:	70 e0       	ldi	r23, 0x00	; 0
     de8:	12 c0       	rjmp	.+36     	; 0xe0e <Serial_open+0x1b6>
     dea:	40 e1       	ldi	r20, 0x10	; 16
     dec:	50 e0       	ldi	r21, 0x00	; 0
     dee:	60 e0       	ldi	r22, 0x00	; 0
     df0:	70 e0       	ldi	r23, 0x00	; 0
     df2:	0d c0       	rjmp	.+26     	; 0xe0e <Serial_open+0x1b6>
     df4:	48 e0       	ldi	r20, 0x08	; 8
     df6:	50 e0       	ldi	r21, 0x00	; 0
     df8:	60 e0       	ldi	r22, 0x00	; 0
     dfa:	70 e0       	ldi	r23, 0x00	; 0
     dfc:	08 c0       	rjmp	.+16     	; 0xe0e <Serial_open+0x1b6>
     dfe:	47 e0       	ldi	r20, 0x07	; 7
     e00:	50 e0       	ldi	r21, 0x00	; 0
     e02:	60 e0       	ldi	r22, 0x00	; 0
     e04:	70 e0       	ldi	r23, 0x00	; 0
     e06:	03 c0       	rjmp	.+6      	; 0xe0e <Serial_open+0x1b6>
     e08:	4f ef       	ldi	r20, 0xFF	; 255
     e0a:	5f ef       	ldi	r21, 0xFF	; 255
     e0c:	ba 01       	movw	r22, r20
     e0e:	8f b7       	in	r24, 0x3f	; 63
     e10:	f8 94       	cli
     e12:	e3 01       	movw	r28, r6
     e14:	cc 0f       	add	r28, r28
     e16:	dd 1f       	adc	r29, r29
     e18:	ca 5f       	subi	r28, 0xFA	; 250
     e1a:	dd 4f       	sbci	r29, 0xFD	; 253
     e1c:	e8 81       	ld	r30, Y
     e1e:	f9 81       	ldd	r31, Y+1	; 0x01
     e20:	55 83       	std	Z+5, r21	; 0x05
     e22:	44 83       	std	Z+4, r20	; 0x04
     e24:	e8 81       	ld	r30, Y
     e26:	f9 81       	ldd	r31, Y+1	; 0x01
     e28:	12 83       	std	Z+2, r17	; 0x02
     e2a:	e8 81       	ld	r30, Y
     e2c:	f9 81       	ldd	r31, Y+1	; 0x01
     e2e:	98 e9       	ldi	r25, 0x98	; 152
     e30:	91 83       	std	Z+1, r25	; 0x01
     e32:	8f bf       	out	0x3f, r24	; 63
     e34:	78 94       	sei
     e36:	80 e0       	ldi	r24, 0x00	; 0
     e38:	90 e0       	ldi	r25, 0x00	; 0
     e3a:	02 c0       	rjmp	.+4      	; 0xe40 <Serial_open+0x1e8>
     e3c:	8f ef       	ldi	r24, 0xFF	; 255
     e3e:	9f ef       	ldi	r25, 0xFF	; 255
     e40:	df 91       	pop	r29
     e42:	cf 91       	pop	r28
     e44:	1f 91       	pop	r17
     e46:	ff 90       	pop	r15
     e48:	ef 90       	pop	r14
     e4a:	df 90       	pop	r13
     e4c:	cf 90       	pop	r12
     e4e:	bf 90       	pop	r11
     e50:	af 90       	pop	r10
     e52:	9f 90       	pop	r9
     e54:	8f 90       	pop	r8
     e56:	7f 90       	pop	r7
     e58:	6f 90       	pop	r6
     e5a:	08 95       	ret

00000e5c <Serial_read>:

int Serial_read(int port)
{
     e5c:	cf 93       	push	r28
     e5e:	df 93       	push	r29
     e60:	1f 92       	push	r1
     e62:	cd b7       	in	r28, 0x3d	; 61
     e64:	de b7       	in	r29, 0x3e	; 62
	char qdata = 0;
     e66:	19 82       	std	Y+1, r1	; 0x01
	int data;
	
	if (Q_getc(ports[port].rx_qid, &qdata))
     e68:	fc 01       	movw	r30, r24
     e6a:	ee 0f       	add	r30, r30
     e6c:	ff 1f       	adc	r31, r31
     e6e:	88 0f       	add	r24, r24
     e70:	99 1f       	adc	r25, r25
     e72:	88 0f       	add	r24, r24
     e74:	99 1f       	adc	r25, r25
     e76:	88 0f       	add	r24, r24
     e78:	99 1f       	adc	r25, r25
     e7a:	e8 0f       	add	r30, r24
     e7c:	f9 1f       	adc	r31, r25
     e7e:	e2 5f       	subi	r30, 0xF2	; 242
     e80:	fd 4f       	sbci	r31, 0xFD	; 253
     e82:	be 01       	movw	r22, r28
     e84:	6f 5f       	subi	r22, 0xFF	; 255
     e86:	7f 4f       	sbci	r23, 0xFF	; 255
     e88:	80 81       	ld	r24, Z
     e8a:	37 de       	rcall	.-914    	; 0xafa <Q_getc>
     e8c:	88 23       	and	r24, r24
     e8e:	19 f0       	breq	.+6      	; 0xe96 <Serial_read+0x3a>
	{
		data = qdata;
     e90:	89 81       	ldd	r24, Y+1	; 0x01
     e92:	90 e0       	ldi	r25, 0x00	; 0
		return data;
     e94:	02 c0       	rjmp	.+4      	; 0xe9a <Serial_read+0x3e>
	}
	else
	{
		return -1;
     e96:	8f ef       	ldi	r24, 0xFF	; 255
     e98:	9f ef       	ldi	r25, 0xFF	; 255
	}
}
     e9a:	0f 90       	pop	r0
     e9c:	df 91       	pop	r29
     e9e:	cf 91       	pop	r28
     ea0:	08 95       	ret

00000ea2 <Serial_read_string>:
		Serial_write(port, data[i]);
	}
	return 1;
}

int Serial_read_string(int port, char * data, int data_length) {
     ea2:	cf 92       	push	r12
     ea4:	df 92       	push	r13
     ea6:	ef 92       	push	r14
     ea8:	ff 92       	push	r15
     eaa:	0f 93       	push	r16
     eac:	1f 93       	push	r17
     eae:	cf 93       	push	r28
     eb0:	df 93       	push	r29
	char latest;
	int i = 0;
	
	//loop until end of data
	while (i < data_length) {
     eb2:	14 16       	cp	r1, r20
     eb4:	15 06       	cpc	r1, r21
     eb6:	ec f4       	brge	.+58     	; 0xef2 <Serial_read_string+0x50>
     eb8:	8a 01       	movw	r16, r20
     eba:	6b 01       	movw	r12, r22
     ebc:	7c 01       	movw	r14, r24
     ebe:	c0 e0       	ldi	r28, 0x00	; 0
     ec0:	d0 e0       	ldi	r29, 0x00	; 0
		//get latest character
		latest = Serial_read(port);
     ec2:	c7 01       	movw	r24, r14
     ec4:	cb df       	rcall	.-106    	; 0xe5c <Serial_read>
		if (latest != 0xFF) {
     ec6:	8f 3f       	cpi	r24, 0xFF	; 255
     ec8:	69 f0       	breq	.+26     	; 0xee4 <Serial_read_string+0x42>
			if (latest == 0x0D) {
     eca:	8d 30       	cpi	r24, 0x0D	; 13
     ecc:	31 f4       	brne	.+12     	; 0xeda <Serial_read_string+0x38>
				//the input has terminated
				data[i] = 0x00;//null terminate string
     ece:	cc 0d       	add	r28, r12
     ed0:	dd 1d       	adc	r29, r13
     ed2:	18 82       	st	Y, r1
				return 1;
     ed4:	81 e0       	ldi	r24, 0x01	; 1
     ed6:	90 e0       	ldi	r25, 0x00	; 0
     ed8:	0e c0       	rjmp	.+28     	; 0xef6 <Serial_read_string+0x54>
			}
			//write the next character into the buffer
			data[i++]=latest;
     eda:	f6 01       	movw	r30, r12
     edc:	ec 0f       	add	r30, r28
     ede:	fd 1f       	adc	r31, r29
     ee0:	80 83       	st	Z, r24
     ee2:	21 96       	adiw	r28, 0x01	; 1
		}
		//if we got back a -1 from Serial_read, just loop again
		x_yield();
     ee4:	20 d9       	rcall	.-3520   	; 0x126 <x_yield>
int Serial_read_string(int port, char * data, int data_length) {
	char latest;
	int i = 0;
	
	//loop until end of data
	while (i < data_length) {
     ee6:	c0 17       	cp	r28, r16
     ee8:	d1 07       	cpc	r29, r17
     eea:	5c f3       	brlt	.-42     	; 0xec2 <Serial_read_string+0x20>
		}
		//if we got back a -1 from Serial_read, just loop again
		x_yield();
	}
	//we've used more than the whole array, error
	return 0;
     eec:	80 e0       	ldi	r24, 0x00	; 0
     eee:	90 e0       	ldi	r25, 0x00	; 0
     ef0:	02 c0       	rjmp	.+4      	; 0xef6 <Serial_read_string+0x54>
     ef2:	80 e0       	ldi	r24, 0x00	; 0
     ef4:	90 e0       	ldi	r25, 0x00	; 0
}
     ef6:	df 91       	pop	r29
     ef8:	cf 91       	pop	r28
     efa:	1f 91       	pop	r17
     efc:	0f 91       	pop	r16
     efe:	ff 90       	pop	r15
     f00:	ef 90       	pop	r14
     f02:	df 90       	pop	r13
     f04:	cf 90       	pop	r12
     f06:	08 95       	ret

00000f08 <Serial_write>:

int Serial_write(int port, char data)
{
     f08:	cf 93       	push	r28
     f0a:	df 93       	push	r29
     f0c:	ec 01       	movw	r28, r24
	if (Q_putc(ports[port].tx_qid, data))
     f0e:	fc 01       	movw	r30, r24
     f10:	ee 0f       	add	r30, r30
     f12:	ff 1f       	adc	r31, r31
     f14:	88 0f       	add	r24, r24
     f16:	99 1f       	adc	r25, r25
     f18:	88 0f       	add	r24, r24
     f1a:	99 1f       	adc	r25, r25
     f1c:	88 0f       	add	r24, r24
     f1e:	99 1f       	adc	r25, r25
     f20:	e8 0f       	add	r30, r24
     f22:	f9 1f       	adc	r31, r25
     f24:	e2 5f       	subi	r30, 0xF2	; 242
     f26:	fd 4f       	sbci	r31, 0xFD	; 253
     f28:	81 81       	ldd	r24, Z+1	; 0x01
     f2a:	78 dd       	rcall	.-1296   	; 0xa1c <Q_putc>
     f2c:	88 23       	and	r24, r24
     f2e:	61 f0       	breq	.+24     	; 0xf48 <Serial_write+0x40>
	{
		//regs[port].ucsrb |= (0x1 << 5); //Commented out line	
		regs[port]->ucsrb |= (1<<UDRIE0); 
     f30:	cc 0f       	add	r28, r28
     f32:	dd 1f       	adc	r29, r29
     f34:	ca 5f       	subi	r28, 0xFA	; 250
     f36:	dd 4f       	sbci	r29, 0xFD	; 253
     f38:	e8 81       	ld	r30, Y
     f3a:	f9 81       	ldd	r31, Y+1	; 0x01
     f3c:	81 81       	ldd	r24, Z+1	; 0x01
     f3e:	80 62       	ori	r24, 0x20	; 32
     f40:	81 83       	std	Z+1, r24	; 0x01
		//regs[port].ucsra |= (0x1 << 5); //This might be wrong.
		return 1;	
     f42:	81 e0       	ldi	r24, 0x01	; 1
     f44:	90 e0       	ldi	r25, 0x00	; 0
     f46:	02 c0       	rjmp	.+4      	; 0xf4c <Serial_write+0x44>
	}
	return -1;
     f48:	8f ef       	ldi	r24, 0xFF	; 255
     f4a:	9f ef       	ldi	r25, 0xFF	; 255
	
}
     f4c:	df 91       	pop	r29
     f4e:	cf 91       	pop	r28
     f50:	08 95       	ret

00000f52 <Serial_write_string>:
	{
		return -1;
	}
}

int Serial_write_string(int port, char * data, int data_length) {
     f52:	ef 92       	push	r14
     f54:	ff 92       	push	r15
     f56:	0f 93       	push	r16
     f58:	1f 93       	push	r17
     f5a:	cf 93       	push	r28
     f5c:	df 93       	push	r29
	for (int i = 0; i < data_length; i++) {
     f5e:	14 16       	cp	r1, r20
     f60:	15 06       	cpc	r1, r21
     f62:	5c f4       	brge	.+22     	; 0xf7a <Serial_write_string+0x28>
     f64:	8b 01       	movw	r16, r22
     f66:	7c 01       	movw	r14, r24
     f68:	eb 01       	movw	r28, r22
     f6a:	04 0f       	add	r16, r20
     f6c:	15 1f       	adc	r17, r21
		Serial_write(port, data[i]);
     f6e:	69 91       	ld	r22, Y+
     f70:	c7 01       	movw	r24, r14
     f72:	ca df       	rcall	.-108    	; 0xf08 <Serial_write>
		return -1;
	}
}

int Serial_write_string(int port, char * data, int data_length) {
	for (int i = 0; i < data_length; i++) {
     f74:	c0 17       	cp	r28, r16
     f76:	d1 07       	cpc	r29, r17
     f78:	d1 f7       	brne	.-12     	; 0xf6e <Serial_write_string+0x1c>
		Serial_write(port, data[i]);
	}
	return 1;
}
     f7a:	81 e0       	ldi	r24, 0x01	; 1
     f7c:	90 e0       	ldi	r25, 0x00	; 0
     f7e:	df 91       	pop	r29
     f80:	cf 91       	pop	r28
     f82:	1f 91       	pop	r17
     f84:	0f 91       	pop	r16
     f86:	ff 90       	pop	r15
     f88:	ef 90       	pop	r14
     f8a:	08 95       	ret

00000f8c <__vector_26>:
	return -1;
	
}

ISR(USART0_UDRE_vect)
{
     f8c:	1f 92       	push	r1
     f8e:	0f 92       	push	r0
     f90:	0f b6       	in	r0, 0x3f	; 63
     f92:	0f 92       	push	r0
     f94:	11 24       	eor	r1, r1
     f96:	0b b6       	in	r0, 0x3b	; 59
     f98:	0f 92       	push	r0
     f9a:	2f 93       	push	r18
     f9c:	3f 93       	push	r19
     f9e:	4f 93       	push	r20
     fa0:	5f 93       	push	r21
     fa2:	6f 93       	push	r22
     fa4:	7f 93       	push	r23
     fa6:	8f 93       	push	r24
     fa8:	9f 93       	push	r25
     faa:	af 93       	push	r26
     fac:	bf 93       	push	r27
     fae:	ef 93       	push	r30
     fb0:	ff 93       	push	r31
     fb2:	cf 93       	push	r28
     fb4:	df 93       	push	r29
     fb6:	1f 92       	push	r1
     fb8:	cd b7       	in	r28, 0x3d	; 61
     fba:	de b7       	in	r29, 0x3e	; 62
	char data;
	if (Q_getc(ports[0].tx_qid, &data))
     fbc:	be 01       	movw	r22, r28
     fbe:	6f 5f       	subi	r22, 0xFF	; 255
     fc0:	7f 4f       	sbci	r23, 0xFF	; 255
     fc2:	80 91 0f 02 	lds	r24, 0x020F
     fc6:	99 dd       	rcall	.-1230   	; 0xafa <Q_getc>
     fc8:	88 23       	and	r24, r24
     fca:	21 f0       	breq	.+8      	; 0xfd4 <__vector_26+0x48>
	{
		UDR0 = data;
     fcc:	89 81       	ldd	r24, Y+1	; 0x01
     fce:	80 93 c6 00 	sts	0x00C6, r24
     fd2:	07 c0       	rjmp	.+14     	; 0xfe2 <__vector_26+0x56>
	}
	else
	{
		regs[0]->ucsrb &= ~(0x1<<UDRIE0);
     fd4:	e0 91 06 02 	lds	r30, 0x0206
     fd8:	f0 91 07 02 	lds	r31, 0x0207
     fdc:	81 81       	ldd	r24, Z+1	; 0x01
     fde:	8f 7d       	andi	r24, 0xDF	; 223
     fe0:	81 83       	std	Z+1, r24	; 0x01
	}
}
     fe2:	0f 90       	pop	r0
     fe4:	df 91       	pop	r29
     fe6:	cf 91       	pop	r28
     fe8:	ff 91       	pop	r31
     fea:	ef 91       	pop	r30
     fec:	bf 91       	pop	r27
     fee:	af 91       	pop	r26
     ff0:	9f 91       	pop	r25
     ff2:	8f 91       	pop	r24
     ff4:	7f 91       	pop	r23
     ff6:	6f 91       	pop	r22
     ff8:	5f 91       	pop	r21
     ffa:	4f 91       	pop	r20
     ffc:	3f 91       	pop	r19
     ffe:	2f 91       	pop	r18
    1000:	0f 90       	pop	r0
    1002:	0b be       	out	0x3b, r0	; 59
    1004:	0f 90       	pop	r0
    1006:	0f be       	out	0x3f, r0	; 63
    1008:	0f 90       	pop	r0
    100a:	1f 90       	pop	r1
    100c:	18 95       	reti

0000100e <__vector_37>:


ISR(USART1_UDRE_vect)
{
    100e:	1f 92       	push	r1
    1010:	0f 92       	push	r0
    1012:	0f b6       	in	r0, 0x3f	; 63
    1014:	0f 92       	push	r0
    1016:	11 24       	eor	r1, r1
    1018:	0b b6       	in	r0, 0x3b	; 59
    101a:	0f 92       	push	r0
    101c:	2f 93       	push	r18
    101e:	3f 93       	push	r19
    1020:	4f 93       	push	r20
    1022:	5f 93       	push	r21
    1024:	6f 93       	push	r22
    1026:	7f 93       	push	r23
    1028:	8f 93       	push	r24
    102a:	9f 93       	push	r25
    102c:	af 93       	push	r26
    102e:	bf 93       	push	r27
    1030:	ef 93       	push	r30
    1032:	ff 93       	push	r31
    1034:	cf 93       	push	r28
    1036:	df 93       	push	r29
    1038:	1f 92       	push	r1
    103a:	cd b7       	in	r28, 0x3d	; 61
    103c:	de b7       	in	r29, 0x3e	; 62
	char data;
	if (Q_getc(ports[1].tx_qid, &data))
    103e:	be 01       	movw	r22, r28
    1040:	6f 5f       	subi	r22, 0xFF	; 255
    1042:	7f 4f       	sbci	r23, 0xFF	; 255
    1044:	80 91 19 02 	lds	r24, 0x0219
    1048:	58 dd       	rcall	.-1360   	; 0xafa <Q_getc>
    104a:	88 23       	and	r24, r24
    104c:	21 f0       	breq	.+8      	; 0x1056 <__vector_37+0x48>
	{
		UDR1 = data;
    104e:	89 81       	ldd	r24, Y+1	; 0x01
    1050:	80 93 ce 00 	sts	0x00CE, r24
    1054:	07 c0       	rjmp	.+14     	; 0x1064 <__vector_37+0x56>
	}
	else
	{
		regs[1]->ucsrb &= ~(0x1 << 5);
    1056:	e0 91 08 02 	lds	r30, 0x0208
    105a:	f0 91 09 02 	lds	r31, 0x0209
    105e:	81 81       	ldd	r24, Z+1	; 0x01
    1060:	8f 7d       	andi	r24, 0xDF	; 223
    1062:	81 83       	std	Z+1, r24	; 0x01
	}
}
    1064:	0f 90       	pop	r0
    1066:	df 91       	pop	r29
    1068:	cf 91       	pop	r28
    106a:	ff 91       	pop	r31
    106c:	ef 91       	pop	r30
    106e:	bf 91       	pop	r27
    1070:	af 91       	pop	r26
    1072:	9f 91       	pop	r25
    1074:	8f 91       	pop	r24
    1076:	7f 91       	pop	r23
    1078:	6f 91       	pop	r22
    107a:	5f 91       	pop	r21
    107c:	4f 91       	pop	r20
    107e:	3f 91       	pop	r19
    1080:	2f 91       	pop	r18
    1082:	0f 90       	pop	r0
    1084:	0b be       	out	0x3b, r0	; 59
    1086:	0f 90       	pop	r0
    1088:	0f be       	out	0x3f, r0	; 63
    108a:	0f 90       	pop	r0
    108c:	1f 90       	pop	r1
    108e:	18 95       	reti

00001090 <__vector_52>:

ISR(USART2_UDRE_vect)
{
    1090:	1f 92       	push	r1
    1092:	0f 92       	push	r0
    1094:	0f b6       	in	r0, 0x3f	; 63
    1096:	0f 92       	push	r0
    1098:	11 24       	eor	r1, r1
    109a:	0b b6       	in	r0, 0x3b	; 59
    109c:	0f 92       	push	r0
    109e:	2f 93       	push	r18
    10a0:	3f 93       	push	r19
    10a2:	4f 93       	push	r20
    10a4:	5f 93       	push	r21
    10a6:	6f 93       	push	r22
    10a8:	7f 93       	push	r23
    10aa:	8f 93       	push	r24
    10ac:	9f 93       	push	r25
    10ae:	af 93       	push	r26
    10b0:	bf 93       	push	r27
    10b2:	ef 93       	push	r30
    10b4:	ff 93       	push	r31
    10b6:	cf 93       	push	r28
    10b8:	df 93       	push	r29
    10ba:	1f 92       	push	r1
    10bc:	cd b7       	in	r28, 0x3d	; 61
    10be:	de b7       	in	r29, 0x3e	; 62
	char data;
	if (Q_getc(ports[2].tx_qid, &data))
    10c0:	be 01       	movw	r22, r28
    10c2:	6f 5f       	subi	r22, 0xFF	; 255
    10c4:	7f 4f       	sbci	r23, 0xFF	; 255
    10c6:	80 91 23 02 	lds	r24, 0x0223
    10ca:	17 dd       	rcall	.-1490   	; 0xafa <Q_getc>
    10cc:	88 23       	and	r24, r24
    10ce:	21 f0       	breq	.+8      	; 0x10d8 <__vector_52+0x48>
	{
		UDR2 = data;
    10d0:	89 81       	ldd	r24, Y+1	; 0x01
    10d2:	80 93 d6 00 	sts	0x00D6, r24
    10d6:	07 c0       	rjmp	.+14     	; 0x10e6 <__vector_52+0x56>
	}
	else
	{
		regs[2]->ucsrb &= ~(0x1 << 5);
    10d8:	e0 91 0a 02 	lds	r30, 0x020A
    10dc:	f0 91 0b 02 	lds	r31, 0x020B
    10e0:	81 81       	ldd	r24, Z+1	; 0x01
    10e2:	8f 7d       	andi	r24, 0xDF	; 223
    10e4:	81 83       	std	Z+1, r24	; 0x01
	}
}
    10e6:	0f 90       	pop	r0
    10e8:	df 91       	pop	r29
    10ea:	cf 91       	pop	r28
    10ec:	ff 91       	pop	r31
    10ee:	ef 91       	pop	r30
    10f0:	bf 91       	pop	r27
    10f2:	af 91       	pop	r26
    10f4:	9f 91       	pop	r25
    10f6:	8f 91       	pop	r24
    10f8:	7f 91       	pop	r23
    10fa:	6f 91       	pop	r22
    10fc:	5f 91       	pop	r21
    10fe:	4f 91       	pop	r20
    1100:	3f 91       	pop	r19
    1102:	2f 91       	pop	r18
    1104:	0f 90       	pop	r0
    1106:	0b be       	out	0x3b, r0	; 59
    1108:	0f 90       	pop	r0
    110a:	0f be       	out	0x3f, r0	; 63
    110c:	0f 90       	pop	r0
    110e:	1f 90       	pop	r1
    1110:	18 95       	reti

00001112 <__vector_55>:

ISR(USART3_UDRE_vect)
{
    1112:	1f 92       	push	r1
    1114:	0f 92       	push	r0
    1116:	0f b6       	in	r0, 0x3f	; 63
    1118:	0f 92       	push	r0
    111a:	11 24       	eor	r1, r1
    111c:	0b b6       	in	r0, 0x3b	; 59
    111e:	0f 92       	push	r0
    1120:	2f 93       	push	r18
    1122:	3f 93       	push	r19
    1124:	4f 93       	push	r20
    1126:	5f 93       	push	r21
    1128:	6f 93       	push	r22
    112a:	7f 93       	push	r23
    112c:	8f 93       	push	r24
    112e:	9f 93       	push	r25
    1130:	af 93       	push	r26
    1132:	bf 93       	push	r27
    1134:	ef 93       	push	r30
    1136:	ff 93       	push	r31
    1138:	cf 93       	push	r28
    113a:	df 93       	push	r29
    113c:	1f 92       	push	r1
    113e:	cd b7       	in	r28, 0x3d	; 61
    1140:	de b7       	in	r29, 0x3e	; 62
	char data;
	if (Q_getc(ports[3].tx_qid, &data))
    1142:	be 01       	movw	r22, r28
    1144:	6f 5f       	subi	r22, 0xFF	; 255
    1146:	7f 4f       	sbci	r23, 0xFF	; 255
    1148:	80 91 2d 02 	lds	r24, 0x022D
    114c:	d6 dc       	rcall	.-1620   	; 0xafa <Q_getc>
    114e:	88 23       	and	r24, r24
    1150:	21 f0       	breq	.+8      	; 0x115a <__vector_55+0x48>
	{
		UDR3 = data;
    1152:	89 81       	ldd	r24, Y+1	; 0x01
    1154:	80 93 36 01 	sts	0x0136, r24
    1158:	07 c0       	rjmp	.+14     	; 0x1168 <__vector_55+0x56>
	}
	else
	{
		regs[3]->ucsrb &= ~(0x1 << 5);
    115a:	e0 91 0c 02 	lds	r30, 0x020C
    115e:	f0 91 0d 02 	lds	r31, 0x020D
    1162:	81 81       	ldd	r24, Z+1	; 0x01
    1164:	8f 7d       	andi	r24, 0xDF	; 223
    1166:	81 83       	std	Z+1, r24	; 0x01
	}
}
    1168:	0f 90       	pop	r0
    116a:	df 91       	pop	r29
    116c:	cf 91       	pop	r28
    116e:	ff 91       	pop	r31
    1170:	ef 91       	pop	r30
    1172:	bf 91       	pop	r27
    1174:	af 91       	pop	r26
    1176:	9f 91       	pop	r25
    1178:	8f 91       	pop	r24
    117a:	7f 91       	pop	r23
    117c:	6f 91       	pop	r22
    117e:	5f 91       	pop	r21
    1180:	4f 91       	pop	r20
    1182:	3f 91       	pop	r19
    1184:	2f 91       	pop	r18
    1186:	0f 90       	pop	r0
    1188:	0b be       	out	0x3b, r0	; 59
    118a:	0f 90       	pop	r0
    118c:	0f be       	out	0x3f, r0	; 63
    118e:	0f 90       	pop	r0
    1190:	1f 90       	pop	r1
    1192:	18 95       	reti

00001194 <__vector_25>:

ISR(USART0_RX_vect)
{
    1194:	1f 92       	push	r1
    1196:	0f 92       	push	r0
    1198:	0f b6       	in	r0, 0x3f	; 63
    119a:	0f 92       	push	r0
    119c:	11 24       	eor	r1, r1
    119e:	0b b6       	in	r0, 0x3b	; 59
    11a0:	0f 92       	push	r0
    11a2:	2f 93       	push	r18
    11a4:	3f 93       	push	r19
    11a6:	4f 93       	push	r20
    11a8:	5f 93       	push	r21
    11aa:	6f 93       	push	r22
    11ac:	7f 93       	push	r23
    11ae:	8f 93       	push	r24
    11b0:	9f 93       	push	r25
    11b2:	af 93       	push	r26
    11b4:	bf 93       	push	r27
    11b6:	ef 93       	push	r30
    11b8:	ff 93       	push	r31
	Q_putc(ports[0].rx_qid, UDR0);
    11ba:	60 91 c6 00 	lds	r22, 0x00C6
    11be:	80 91 0e 02 	lds	r24, 0x020E
    11c2:	2c dc       	rcall	.-1960   	; 0xa1c <Q_putc>
}
    11c4:	ff 91       	pop	r31
    11c6:	ef 91       	pop	r30
    11c8:	bf 91       	pop	r27
    11ca:	af 91       	pop	r26
    11cc:	9f 91       	pop	r25
    11ce:	8f 91       	pop	r24
    11d0:	7f 91       	pop	r23
    11d2:	6f 91       	pop	r22
    11d4:	5f 91       	pop	r21
    11d6:	4f 91       	pop	r20
    11d8:	3f 91       	pop	r19
    11da:	2f 91       	pop	r18
    11dc:	0f 90       	pop	r0
    11de:	0b be       	out	0x3b, r0	; 59
    11e0:	0f 90       	pop	r0
    11e2:	0f be       	out	0x3f, r0	; 63
    11e4:	0f 90       	pop	r0
    11e6:	1f 90       	pop	r1
    11e8:	18 95       	reti

000011ea <__vector_36>:

ISR(USART1_RX_vect)
{
    11ea:	1f 92       	push	r1
    11ec:	0f 92       	push	r0
    11ee:	0f b6       	in	r0, 0x3f	; 63
    11f0:	0f 92       	push	r0
    11f2:	11 24       	eor	r1, r1
    11f4:	0b b6       	in	r0, 0x3b	; 59
    11f6:	0f 92       	push	r0
    11f8:	2f 93       	push	r18
    11fa:	3f 93       	push	r19
    11fc:	4f 93       	push	r20
    11fe:	5f 93       	push	r21
    1200:	6f 93       	push	r22
    1202:	7f 93       	push	r23
    1204:	8f 93       	push	r24
    1206:	9f 93       	push	r25
    1208:	af 93       	push	r26
    120a:	bf 93       	push	r27
    120c:	ef 93       	push	r30
    120e:	ff 93       	push	r31
	Q_putc(ports[1].rx_qid, UDR1);
    1210:	60 91 ce 00 	lds	r22, 0x00CE
    1214:	80 91 18 02 	lds	r24, 0x0218
    1218:	01 dc       	rcall	.-2046   	; 0xa1c <Q_putc>
}
    121a:	ff 91       	pop	r31
    121c:	ef 91       	pop	r30
    121e:	bf 91       	pop	r27
    1220:	af 91       	pop	r26
    1222:	9f 91       	pop	r25
    1224:	8f 91       	pop	r24
    1226:	7f 91       	pop	r23
    1228:	6f 91       	pop	r22
    122a:	5f 91       	pop	r21
    122c:	4f 91       	pop	r20
    122e:	3f 91       	pop	r19
    1230:	2f 91       	pop	r18
    1232:	0f 90       	pop	r0
    1234:	0b be       	out	0x3b, r0	; 59
    1236:	0f 90       	pop	r0
    1238:	0f be       	out	0x3f, r0	; 63
    123a:	0f 90       	pop	r0
    123c:	1f 90       	pop	r1
    123e:	18 95       	reti

00001240 <__vector_51>:

ISR(USART2_RX_vect)
{
    1240:	1f 92       	push	r1
    1242:	0f 92       	push	r0
    1244:	0f b6       	in	r0, 0x3f	; 63
    1246:	0f 92       	push	r0
    1248:	11 24       	eor	r1, r1
    124a:	0b b6       	in	r0, 0x3b	; 59
    124c:	0f 92       	push	r0
    124e:	2f 93       	push	r18
    1250:	3f 93       	push	r19
    1252:	4f 93       	push	r20
    1254:	5f 93       	push	r21
    1256:	6f 93       	push	r22
    1258:	7f 93       	push	r23
    125a:	8f 93       	push	r24
    125c:	9f 93       	push	r25
    125e:	af 93       	push	r26
    1260:	bf 93       	push	r27
    1262:	ef 93       	push	r30
    1264:	ff 93       	push	r31
	Q_putc(ports[2].rx_qid, UDR2);
    1266:	60 91 d6 00 	lds	r22, 0x00D6
    126a:	80 91 22 02 	lds	r24, 0x0222
    126e:	d6 db       	rcall	.-2132   	; 0xa1c <Q_putc>
}
    1270:	ff 91       	pop	r31
    1272:	ef 91       	pop	r30
    1274:	bf 91       	pop	r27
    1276:	af 91       	pop	r26
    1278:	9f 91       	pop	r25
    127a:	8f 91       	pop	r24
    127c:	7f 91       	pop	r23
    127e:	6f 91       	pop	r22
    1280:	5f 91       	pop	r21
    1282:	4f 91       	pop	r20
    1284:	3f 91       	pop	r19
    1286:	2f 91       	pop	r18
    1288:	0f 90       	pop	r0
    128a:	0b be       	out	0x3b, r0	; 59
    128c:	0f 90       	pop	r0
    128e:	0f be       	out	0x3f, r0	; 63
    1290:	0f 90       	pop	r0
    1292:	1f 90       	pop	r1
    1294:	18 95       	reti

00001296 <__vector_54>:

ISR(USART3_RX_vect)
{
    1296:	1f 92       	push	r1
    1298:	0f 92       	push	r0
    129a:	0f b6       	in	r0, 0x3f	; 63
    129c:	0f 92       	push	r0
    129e:	11 24       	eor	r1, r1
    12a0:	0b b6       	in	r0, 0x3b	; 59
    12a2:	0f 92       	push	r0
    12a4:	2f 93       	push	r18
    12a6:	3f 93       	push	r19
    12a8:	4f 93       	push	r20
    12aa:	5f 93       	push	r21
    12ac:	6f 93       	push	r22
    12ae:	7f 93       	push	r23
    12b0:	8f 93       	push	r24
    12b2:	9f 93       	push	r25
    12b4:	af 93       	push	r26
    12b6:	bf 93       	push	r27
    12b8:	ef 93       	push	r30
    12ba:	ff 93       	push	r31
	Q_putc(ports[3].rx_qid, UDR3);
    12bc:	60 91 36 01 	lds	r22, 0x0136
    12c0:	80 91 2c 02 	lds	r24, 0x022C
    12c4:	ab db       	rcall	.-2218   	; 0xa1c <Q_putc>
}
    12c6:	ff 91       	pop	r31
    12c8:	ef 91       	pop	r30
    12ca:	bf 91       	pop	r27
    12cc:	af 91       	pop	r26
    12ce:	9f 91       	pop	r25
    12d0:	8f 91       	pop	r24
    12d2:	7f 91       	pop	r23
    12d4:	6f 91       	pop	r22
    12d6:	5f 91       	pop	r21
    12d8:	4f 91       	pop	r20
    12da:	3f 91       	pop	r19
    12dc:	2f 91       	pop	r18
    12de:	0f 90       	pop	r0
    12e0:	0b be       	out	0x3b, r0	; 59
    12e2:	0f 90       	pop	r0
    12e4:	0f be       	out	0x3f, r0	; 63
    12e6:	0f 90       	pop	r0
    12e8:	1f 90       	pop	r1
    12ea:	18 95       	reti

000012ec <__divmodhi4>:
    12ec:	97 fb       	bst	r25, 7
    12ee:	07 2e       	mov	r0, r23
    12f0:	16 f4       	brtc	.+4      	; 0x12f6 <__divmodhi4+0xa>
    12f2:	00 94       	com	r0
    12f4:	06 d0       	rcall	.+12     	; 0x1302 <__divmodhi4_neg1>
    12f6:	77 fd       	sbrc	r23, 7
    12f8:	08 d0       	rcall	.+16     	; 0x130a <__divmodhi4_neg2>
    12fa:	0b d0       	rcall	.+22     	; 0x1312 <__udivmodhi4>
    12fc:	07 fc       	sbrc	r0, 7
    12fe:	05 d0       	rcall	.+10     	; 0x130a <__divmodhi4_neg2>
    1300:	3e f4       	brtc	.+14     	; 0x1310 <__divmodhi4_exit>

00001302 <__divmodhi4_neg1>:
    1302:	90 95       	com	r25
    1304:	81 95       	neg	r24
    1306:	9f 4f       	sbci	r25, 0xFF	; 255
    1308:	08 95       	ret

0000130a <__divmodhi4_neg2>:
    130a:	70 95       	com	r23
    130c:	61 95       	neg	r22
    130e:	7f 4f       	sbci	r23, 0xFF	; 255

00001310 <__divmodhi4_exit>:
    1310:	08 95       	ret

00001312 <__udivmodhi4>:
    1312:	aa 1b       	sub	r26, r26
    1314:	bb 1b       	sub	r27, r27
    1316:	51 e1       	ldi	r21, 0x11	; 17
    1318:	07 c0       	rjmp	.+14     	; 0x1328 <__udivmodhi4_ep>

0000131a <__udivmodhi4_loop>:
    131a:	aa 1f       	adc	r26, r26
    131c:	bb 1f       	adc	r27, r27
    131e:	a6 17       	cp	r26, r22
    1320:	b7 07       	cpc	r27, r23
    1322:	10 f0       	brcs	.+4      	; 0x1328 <__udivmodhi4_ep>
    1324:	a6 1b       	sub	r26, r22
    1326:	b7 0b       	sbc	r27, r23

00001328 <__udivmodhi4_ep>:
    1328:	88 1f       	adc	r24, r24
    132a:	99 1f       	adc	r25, r25
    132c:	5a 95       	dec	r21
    132e:	a9 f7       	brne	.-22     	; 0x131a <__udivmodhi4_loop>
    1330:	80 95       	com	r24
    1332:	90 95       	com	r25
    1334:	bc 01       	movw	r22, r24
    1336:	cd 01       	movw	r24, r26
    1338:	08 95       	ret

0000133a <atoi>:
    133a:	fc 01       	movw	r30, r24
    133c:	88 27       	eor	r24, r24
    133e:	99 27       	eor	r25, r25
    1340:	e8 94       	clt
    1342:	21 91       	ld	r18, Z+
    1344:	20 32       	cpi	r18, 0x20	; 32
    1346:	e9 f3       	breq	.-6      	; 0x1342 <atoi+0x8>
    1348:	29 30       	cpi	r18, 0x09	; 9
    134a:	10 f0       	brcs	.+4      	; 0x1350 <atoi+0x16>
    134c:	2e 30       	cpi	r18, 0x0E	; 14
    134e:	c8 f3       	brcs	.-14     	; 0x1342 <atoi+0x8>
    1350:	2b 32       	cpi	r18, 0x2B	; 43
    1352:	39 f0       	breq	.+14     	; 0x1362 <atoi+0x28>
    1354:	2d 32       	cpi	r18, 0x2D	; 45
    1356:	31 f4       	brne	.+12     	; 0x1364 <atoi+0x2a>
    1358:	68 94       	set
    135a:	03 c0       	rjmp	.+6      	; 0x1362 <atoi+0x28>
    135c:	14 d0       	rcall	.+40     	; 0x1386 <__mulhi_const_10>
    135e:	82 0f       	add	r24, r18
    1360:	91 1d       	adc	r25, r1
    1362:	21 91       	ld	r18, Z+
    1364:	20 53       	subi	r18, 0x30	; 48
    1366:	2a 30       	cpi	r18, 0x0A	; 10
    1368:	c8 f3       	brcs	.-14     	; 0x135c <atoi+0x22>
    136a:	1e f4       	brtc	.+6      	; 0x1372 <atoi+0x38>
    136c:	90 95       	com	r25
    136e:	81 95       	neg	r24
    1370:	9f 4f       	sbci	r25, 0xFF	; 255
    1372:	08 95       	ret

00001374 <strcmp>:
    1374:	fb 01       	movw	r30, r22
    1376:	dc 01       	movw	r26, r24
    1378:	8d 91       	ld	r24, X+
    137a:	01 90       	ld	r0, Z+
    137c:	80 19       	sub	r24, r0
    137e:	01 10       	cpse	r0, r1
    1380:	d9 f3       	breq	.-10     	; 0x1378 <strcmp+0x4>
    1382:	99 0b       	sbc	r25, r25
    1384:	08 95       	ret

00001386 <__mulhi_const_10>:
    1386:	7a e0       	ldi	r23, 0x0A	; 10
    1388:	97 9f       	mul	r25, r23
    138a:	90 2d       	mov	r25, r0
    138c:	87 9f       	mul	r24, r23
    138e:	80 2d       	mov	r24, r0
    1390:	91 0d       	add	r25, r1
    1392:	11 24       	eor	r1, r1
    1394:	08 95       	ret

00001396 <sprintf>:
    1396:	0f 93       	push	r16
    1398:	1f 93       	push	r17
    139a:	cf 93       	push	r28
    139c:	df 93       	push	r29
    139e:	cd b7       	in	r28, 0x3d	; 61
    13a0:	de b7       	in	r29, 0x3e	; 62
    13a2:	2e 97       	sbiw	r28, 0x0e	; 14
    13a4:	0f b6       	in	r0, 0x3f	; 63
    13a6:	f8 94       	cli
    13a8:	de bf       	out	0x3e, r29	; 62
    13aa:	0f be       	out	0x3f, r0	; 63
    13ac:	cd bf       	out	0x3d, r28	; 61
    13ae:	0e 89       	ldd	r16, Y+22	; 0x16
    13b0:	1f 89       	ldd	r17, Y+23	; 0x17
    13b2:	86 e0       	ldi	r24, 0x06	; 6
    13b4:	8c 83       	std	Y+4, r24	; 0x04
    13b6:	1a 83       	std	Y+2, r17	; 0x02
    13b8:	09 83       	std	Y+1, r16	; 0x01
    13ba:	8f ef       	ldi	r24, 0xFF	; 255
    13bc:	9f e7       	ldi	r25, 0x7F	; 127
    13be:	9e 83       	std	Y+6, r25	; 0x06
    13c0:	8d 83       	std	Y+5, r24	; 0x05
    13c2:	ae 01       	movw	r20, r28
    13c4:	46 5e       	subi	r20, 0xE6	; 230
    13c6:	5f 4f       	sbci	r21, 0xFF	; 255
    13c8:	68 8d       	ldd	r22, Y+24	; 0x18
    13ca:	79 8d       	ldd	r23, Y+25	; 0x19
    13cc:	ce 01       	movw	r24, r28
    13ce:	01 96       	adiw	r24, 0x01	; 1
    13d0:	11 d0       	rcall	.+34     	; 0x13f4 <vfprintf>
    13d2:	2f 81       	ldd	r18, Y+7	; 0x07
    13d4:	38 85       	ldd	r19, Y+8	; 0x08
    13d6:	f8 01       	movw	r30, r16
    13d8:	e2 0f       	add	r30, r18
    13da:	f3 1f       	adc	r31, r19
    13dc:	10 82       	st	Z, r1
    13de:	2e 96       	adiw	r28, 0x0e	; 14
    13e0:	0f b6       	in	r0, 0x3f	; 63
    13e2:	f8 94       	cli
    13e4:	de bf       	out	0x3e, r29	; 62
    13e6:	0f be       	out	0x3f, r0	; 63
    13e8:	cd bf       	out	0x3d, r28	; 61
    13ea:	df 91       	pop	r29
    13ec:	cf 91       	pop	r28
    13ee:	1f 91       	pop	r17
    13f0:	0f 91       	pop	r16
    13f2:	08 95       	ret

000013f4 <vfprintf>:
    13f4:	2f 92       	push	r2
    13f6:	3f 92       	push	r3
    13f8:	4f 92       	push	r4
    13fa:	5f 92       	push	r5
    13fc:	6f 92       	push	r6
    13fe:	7f 92       	push	r7
    1400:	8f 92       	push	r8
    1402:	9f 92       	push	r9
    1404:	af 92       	push	r10
    1406:	bf 92       	push	r11
    1408:	cf 92       	push	r12
    140a:	df 92       	push	r13
    140c:	ef 92       	push	r14
    140e:	ff 92       	push	r15
    1410:	0f 93       	push	r16
    1412:	1f 93       	push	r17
    1414:	cf 93       	push	r28
    1416:	df 93       	push	r29
    1418:	cd b7       	in	r28, 0x3d	; 61
    141a:	de b7       	in	r29, 0x3e	; 62
    141c:	2c 97       	sbiw	r28, 0x0c	; 12
    141e:	0f b6       	in	r0, 0x3f	; 63
    1420:	f8 94       	cli
    1422:	de bf       	out	0x3e, r29	; 62
    1424:	0f be       	out	0x3f, r0	; 63
    1426:	cd bf       	out	0x3d, r28	; 61
    1428:	7c 01       	movw	r14, r24
    142a:	6b 01       	movw	r12, r22
    142c:	8a 01       	movw	r16, r20
    142e:	fc 01       	movw	r30, r24
    1430:	17 82       	std	Z+7, r1	; 0x07
    1432:	16 82       	std	Z+6, r1	; 0x06
    1434:	83 81       	ldd	r24, Z+3	; 0x03
    1436:	81 ff       	sbrs	r24, 1
    1438:	b0 c1       	rjmp	.+864    	; 0x179a <vfprintf+0x3a6>
    143a:	ce 01       	movw	r24, r28
    143c:	01 96       	adiw	r24, 0x01	; 1
    143e:	4c 01       	movw	r8, r24
    1440:	f7 01       	movw	r30, r14
    1442:	93 81       	ldd	r25, Z+3	; 0x03
    1444:	f6 01       	movw	r30, r12
    1446:	93 fd       	sbrc	r25, 3
    1448:	85 91       	lpm	r24, Z+
    144a:	93 ff       	sbrs	r25, 3
    144c:	81 91       	ld	r24, Z+
    144e:	6f 01       	movw	r12, r30
    1450:	88 23       	and	r24, r24
    1452:	09 f4       	brne	.+2      	; 0x1456 <vfprintf+0x62>
    1454:	9e c1       	rjmp	.+828    	; 0x1792 <vfprintf+0x39e>
    1456:	85 32       	cpi	r24, 0x25	; 37
    1458:	39 f4       	brne	.+14     	; 0x1468 <vfprintf+0x74>
    145a:	93 fd       	sbrc	r25, 3
    145c:	85 91       	lpm	r24, Z+
    145e:	93 ff       	sbrs	r25, 3
    1460:	81 91       	ld	r24, Z+
    1462:	6f 01       	movw	r12, r30
    1464:	85 32       	cpi	r24, 0x25	; 37
    1466:	21 f4       	brne	.+8      	; 0x1470 <vfprintf+0x7c>
    1468:	b7 01       	movw	r22, r14
    146a:	90 e0       	ldi	r25, 0x00	; 0
    146c:	c7 d1       	rcall	.+910    	; 0x17fc <fputc>
    146e:	e8 cf       	rjmp	.-48     	; 0x1440 <vfprintf+0x4c>
    1470:	51 2c       	mov	r5, r1
    1472:	31 2c       	mov	r3, r1
    1474:	20 e0       	ldi	r18, 0x00	; 0
    1476:	20 32       	cpi	r18, 0x20	; 32
    1478:	a0 f4       	brcc	.+40     	; 0x14a2 <vfprintf+0xae>
    147a:	8b 32       	cpi	r24, 0x2B	; 43
    147c:	69 f0       	breq	.+26     	; 0x1498 <vfprintf+0xa4>
    147e:	30 f4       	brcc	.+12     	; 0x148c <vfprintf+0x98>
    1480:	80 32       	cpi	r24, 0x20	; 32
    1482:	59 f0       	breq	.+22     	; 0x149a <vfprintf+0xa6>
    1484:	83 32       	cpi	r24, 0x23	; 35
    1486:	69 f4       	brne	.+26     	; 0x14a2 <vfprintf+0xae>
    1488:	20 61       	ori	r18, 0x10	; 16
    148a:	2c c0       	rjmp	.+88     	; 0x14e4 <vfprintf+0xf0>
    148c:	8d 32       	cpi	r24, 0x2D	; 45
    148e:	39 f0       	breq	.+14     	; 0x149e <vfprintf+0xaa>
    1490:	80 33       	cpi	r24, 0x30	; 48
    1492:	39 f4       	brne	.+14     	; 0x14a2 <vfprintf+0xae>
    1494:	21 60       	ori	r18, 0x01	; 1
    1496:	26 c0       	rjmp	.+76     	; 0x14e4 <vfprintf+0xf0>
    1498:	22 60       	ori	r18, 0x02	; 2
    149a:	24 60       	ori	r18, 0x04	; 4
    149c:	23 c0       	rjmp	.+70     	; 0x14e4 <vfprintf+0xf0>
    149e:	28 60       	ori	r18, 0x08	; 8
    14a0:	21 c0       	rjmp	.+66     	; 0x14e4 <vfprintf+0xf0>
    14a2:	27 fd       	sbrc	r18, 7
    14a4:	27 c0       	rjmp	.+78     	; 0x14f4 <vfprintf+0x100>
    14a6:	30 ed       	ldi	r19, 0xD0	; 208
    14a8:	38 0f       	add	r19, r24
    14aa:	3a 30       	cpi	r19, 0x0A	; 10
    14ac:	78 f4       	brcc	.+30     	; 0x14cc <vfprintf+0xd8>
    14ae:	26 ff       	sbrs	r18, 6
    14b0:	06 c0       	rjmp	.+12     	; 0x14be <vfprintf+0xca>
    14b2:	fa e0       	ldi	r31, 0x0A	; 10
    14b4:	5f 9e       	mul	r5, r31
    14b6:	30 0d       	add	r19, r0
    14b8:	11 24       	eor	r1, r1
    14ba:	53 2e       	mov	r5, r19
    14bc:	13 c0       	rjmp	.+38     	; 0x14e4 <vfprintf+0xf0>
    14be:	8a e0       	ldi	r24, 0x0A	; 10
    14c0:	38 9e       	mul	r3, r24
    14c2:	30 0d       	add	r19, r0
    14c4:	11 24       	eor	r1, r1
    14c6:	33 2e       	mov	r3, r19
    14c8:	20 62       	ori	r18, 0x20	; 32
    14ca:	0c c0       	rjmp	.+24     	; 0x14e4 <vfprintf+0xf0>
    14cc:	8e 32       	cpi	r24, 0x2E	; 46
    14ce:	21 f4       	brne	.+8      	; 0x14d8 <vfprintf+0xe4>
    14d0:	26 fd       	sbrc	r18, 6
    14d2:	5f c1       	rjmp	.+702    	; 0x1792 <vfprintf+0x39e>
    14d4:	20 64       	ori	r18, 0x40	; 64
    14d6:	06 c0       	rjmp	.+12     	; 0x14e4 <vfprintf+0xf0>
    14d8:	8c 36       	cpi	r24, 0x6C	; 108
    14da:	11 f4       	brne	.+4      	; 0x14e0 <vfprintf+0xec>
    14dc:	20 68       	ori	r18, 0x80	; 128
    14de:	02 c0       	rjmp	.+4      	; 0x14e4 <vfprintf+0xf0>
    14e0:	88 36       	cpi	r24, 0x68	; 104
    14e2:	41 f4       	brne	.+16     	; 0x14f4 <vfprintf+0x100>
    14e4:	f6 01       	movw	r30, r12
    14e6:	93 fd       	sbrc	r25, 3
    14e8:	85 91       	lpm	r24, Z+
    14ea:	93 ff       	sbrs	r25, 3
    14ec:	81 91       	ld	r24, Z+
    14ee:	6f 01       	movw	r12, r30
    14f0:	81 11       	cpse	r24, r1
    14f2:	c1 cf       	rjmp	.-126    	; 0x1476 <vfprintf+0x82>
    14f4:	98 2f       	mov	r25, r24
    14f6:	9f 7d       	andi	r25, 0xDF	; 223
    14f8:	95 54       	subi	r25, 0x45	; 69
    14fa:	93 30       	cpi	r25, 0x03	; 3
    14fc:	28 f4       	brcc	.+10     	; 0x1508 <vfprintf+0x114>
    14fe:	0c 5f       	subi	r16, 0xFC	; 252
    1500:	1f 4f       	sbci	r17, 0xFF	; 255
    1502:	ff e3       	ldi	r31, 0x3F	; 63
    1504:	f9 83       	std	Y+1, r31	; 0x01
    1506:	0d c0       	rjmp	.+26     	; 0x1522 <vfprintf+0x12e>
    1508:	83 36       	cpi	r24, 0x63	; 99
    150a:	31 f0       	breq	.+12     	; 0x1518 <vfprintf+0x124>
    150c:	83 37       	cpi	r24, 0x73	; 115
    150e:	71 f0       	breq	.+28     	; 0x152c <vfprintf+0x138>
    1510:	83 35       	cpi	r24, 0x53	; 83
    1512:	09 f0       	breq	.+2      	; 0x1516 <vfprintf+0x122>
    1514:	57 c0       	rjmp	.+174    	; 0x15c4 <vfprintf+0x1d0>
    1516:	21 c0       	rjmp	.+66     	; 0x155a <vfprintf+0x166>
    1518:	f8 01       	movw	r30, r16
    151a:	80 81       	ld	r24, Z
    151c:	89 83       	std	Y+1, r24	; 0x01
    151e:	0e 5f       	subi	r16, 0xFE	; 254
    1520:	1f 4f       	sbci	r17, 0xFF	; 255
    1522:	44 24       	eor	r4, r4
    1524:	43 94       	inc	r4
    1526:	51 2c       	mov	r5, r1
    1528:	54 01       	movw	r10, r8
    152a:	14 c0       	rjmp	.+40     	; 0x1554 <vfprintf+0x160>
    152c:	38 01       	movw	r6, r16
    152e:	f2 e0       	ldi	r31, 0x02	; 2
    1530:	6f 0e       	add	r6, r31
    1532:	71 1c       	adc	r7, r1
    1534:	f8 01       	movw	r30, r16
    1536:	a0 80       	ld	r10, Z
    1538:	b1 80       	ldd	r11, Z+1	; 0x01
    153a:	26 ff       	sbrs	r18, 6
    153c:	03 c0       	rjmp	.+6      	; 0x1544 <vfprintf+0x150>
    153e:	65 2d       	mov	r22, r5
    1540:	70 e0       	ldi	r23, 0x00	; 0
    1542:	02 c0       	rjmp	.+4      	; 0x1548 <vfprintf+0x154>
    1544:	6f ef       	ldi	r22, 0xFF	; 255
    1546:	7f ef       	ldi	r23, 0xFF	; 255
    1548:	c5 01       	movw	r24, r10
    154a:	2c 87       	std	Y+12, r18	; 0x0c
    154c:	4c d1       	rcall	.+664    	; 0x17e6 <strnlen>
    154e:	2c 01       	movw	r4, r24
    1550:	83 01       	movw	r16, r6
    1552:	2c 85       	ldd	r18, Y+12	; 0x0c
    1554:	2f 77       	andi	r18, 0x7F	; 127
    1556:	22 2e       	mov	r2, r18
    1558:	16 c0       	rjmp	.+44     	; 0x1586 <vfprintf+0x192>
    155a:	38 01       	movw	r6, r16
    155c:	f2 e0       	ldi	r31, 0x02	; 2
    155e:	6f 0e       	add	r6, r31
    1560:	71 1c       	adc	r7, r1
    1562:	f8 01       	movw	r30, r16
    1564:	a0 80       	ld	r10, Z
    1566:	b1 80       	ldd	r11, Z+1	; 0x01
    1568:	26 ff       	sbrs	r18, 6
    156a:	03 c0       	rjmp	.+6      	; 0x1572 <vfprintf+0x17e>
    156c:	65 2d       	mov	r22, r5
    156e:	70 e0       	ldi	r23, 0x00	; 0
    1570:	02 c0       	rjmp	.+4      	; 0x1576 <vfprintf+0x182>
    1572:	6f ef       	ldi	r22, 0xFF	; 255
    1574:	7f ef       	ldi	r23, 0xFF	; 255
    1576:	c5 01       	movw	r24, r10
    1578:	2c 87       	std	Y+12, r18	; 0x0c
    157a:	2a d1       	rcall	.+596    	; 0x17d0 <strnlen_P>
    157c:	2c 01       	movw	r4, r24
    157e:	2c 85       	ldd	r18, Y+12	; 0x0c
    1580:	20 68       	ori	r18, 0x80	; 128
    1582:	22 2e       	mov	r2, r18
    1584:	83 01       	movw	r16, r6
    1586:	23 fc       	sbrc	r2, 3
    1588:	19 c0       	rjmp	.+50     	; 0x15bc <vfprintf+0x1c8>
    158a:	83 2d       	mov	r24, r3
    158c:	90 e0       	ldi	r25, 0x00	; 0
    158e:	48 16       	cp	r4, r24
    1590:	59 06       	cpc	r5, r25
    1592:	a0 f4       	brcc	.+40     	; 0x15bc <vfprintf+0x1c8>
    1594:	b7 01       	movw	r22, r14
    1596:	80 e2       	ldi	r24, 0x20	; 32
    1598:	90 e0       	ldi	r25, 0x00	; 0
    159a:	30 d1       	rcall	.+608    	; 0x17fc <fputc>
    159c:	3a 94       	dec	r3
    159e:	f5 cf       	rjmp	.-22     	; 0x158a <vfprintf+0x196>
    15a0:	f5 01       	movw	r30, r10
    15a2:	27 fc       	sbrc	r2, 7
    15a4:	85 91       	lpm	r24, Z+
    15a6:	27 fe       	sbrs	r2, 7
    15a8:	81 91       	ld	r24, Z+
    15aa:	5f 01       	movw	r10, r30
    15ac:	b7 01       	movw	r22, r14
    15ae:	90 e0       	ldi	r25, 0x00	; 0
    15b0:	25 d1       	rcall	.+586    	; 0x17fc <fputc>
    15b2:	31 10       	cpse	r3, r1
    15b4:	3a 94       	dec	r3
    15b6:	f1 e0       	ldi	r31, 0x01	; 1
    15b8:	4f 1a       	sub	r4, r31
    15ba:	51 08       	sbc	r5, r1
    15bc:	41 14       	cp	r4, r1
    15be:	51 04       	cpc	r5, r1
    15c0:	79 f7       	brne	.-34     	; 0x15a0 <vfprintf+0x1ac>
    15c2:	de c0       	rjmp	.+444    	; 0x1780 <vfprintf+0x38c>
    15c4:	84 36       	cpi	r24, 0x64	; 100
    15c6:	11 f0       	breq	.+4      	; 0x15cc <vfprintf+0x1d8>
    15c8:	89 36       	cpi	r24, 0x69	; 105
    15ca:	31 f5       	brne	.+76     	; 0x1618 <vfprintf+0x224>
    15cc:	f8 01       	movw	r30, r16
    15ce:	27 ff       	sbrs	r18, 7
    15d0:	07 c0       	rjmp	.+14     	; 0x15e0 <vfprintf+0x1ec>
    15d2:	60 81       	ld	r22, Z
    15d4:	71 81       	ldd	r23, Z+1	; 0x01
    15d6:	82 81       	ldd	r24, Z+2	; 0x02
    15d8:	93 81       	ldd	r25, Z+3	; 0x03
    15da:	0c 5f       	subi	r16, 0xFC	; 252
    15dc:	1f 4f       	sbci	r17, 0xFF	; 255
    15de:	08 c0       	rjmp	.+16     	; 0x15f0 <vfprintf+0x1fc>
    15e0:	60 81       	ld	r22, Z
    15e2:	71 81       	ldd	r23, Z+1	; 0x01
    15e4:	07 2e       	mov	r0, r23
    15e6:	00 0c       	add	r0, r0
    15e8:	88 0b       	sbc	r24, r24
    15ea:	99 0b       	sbc	r25, r25
    15ec:	0e 5f       	subi	r16, 0xFE	; 254
    15ee:	1f 4f       	sbci	r17, 0xFF	; 255
    15f0:	2f 76       	andi	r18, 0x6F	; 111
    15f2:	72 2e       	mov	r7, r18
    15f4:	97 ff       	sbrs	r25, 7
    15f6:	09 c0       	rjmp	.+18     	; 0x160a <vfprintf+0x216>
    15f8:	90 95       	com	r25
    15fa:	80 95       	com	r24
    15fc:	70 95       	com	r23
    15fe:	61 95       	neg	r22
    1600:	7f 4f       	sbci	r23, 0xFF	; 255
    1602:	8f 4f       	sbci	r24, 0xFF	; 255
    1604:	9f 4f       	sbci	r25, 0xFF	; 255
    1606:	20 68       	ori	r18, 0x80	; 128
    1608:	72 2e       	mov	r7, r18
    160a:	2a e0       	ldi	r18, 0x0A	; 10
    160c:	30 e0       	ldi	r19, 0x00	; 0
    160e:	a4 01       	movw	r20, r8
    1610:	2d d1       	rcall	.+602    	; 0x186c <__ultoa_invert>
    1612:	a8 2e       	mov	r10, r24
    1614:	a8 18       	sub	r10, r8
    1616:	43 c0       	rjmp	.+134    	; 0x169e <vfprintf+0x2aa>
    1618:	85 37       	cpi	r24, 0x75	; 117
    161a:	29 f4       	brne	.+10     	; 0x1626 <vfprintf+0x232>
    161c:	2f 7e       	andi	r18, 0xEF	; 239
    161e:	b2 2e       	mov	r11, r18
    1620:	2a e0       	ldi	r18, 0x0A	; 10
    1622:	30 e0       	ldi	r19, 0x00	; 0
    1624:	25 c0       	rjmp	.+74     	; 0x1670 <vfprintf+0x27c>
    1626:	f2 2f       	mov	r31, r18
    1628:	f9 7f       	andi	r31, 0xF9	; 249
    162a:	bf 2e       	mov	r11, r31
    162c:	8f 36       	cpi	r24, 0x6F	; 111
    162e:	c1 f0       	breq	.+48     	; 0x1660 <vfprintf+0x26c>
    1630:	18 f4       	brcc	.+6      	; 0x1638 <vfprintf+0x244>
    1632:	88 35       	cpi	r24, 0x58	; 88
    1634:	79 f0       	breq	.+30     	; 0x1654 <vfprintf+0x260>
    1636:	ad c0       	rjmp	.+346    	; 0x1792 <vfprintf+0x39e>
    1638:	80 37       	cpi	r24, 0x70	; 112
    163a:	19 f0       	breq	.+6      	; 0x1642 <vfprintf+0x24e>
    163c:	88 37       	cpi	r24, 0x78	; 120
    163e:	21 f0       	breq	.+8      	; 0x1648 <vfprintf+0x254>
    1640:	a8 c0       	rjmp	.+336    	; 0x1792 <vfprintf+0x39e>
    1642:	2f 2f       	mov	r18, r31
    1644:	20 61       	ori	r18, 0x10	; 16
    1646:	b2 2e       	mov	r11, r18
    1648:	b4 fe       	sbrs	r11, 4
    164a:	0d c0       	rjmp	.+26     	; 0x1666 <vfprintf+0x272>
    164c:	8b 2d       	mov	r24, r11
    164e:	84 60       	ori	r24, 0x04	; 4
    1650:	b8 2e       	mov	r11, r24
    1652:	09 c0       	rjmp	.+18     	; 0x1666 <vfprintf+0x272>
    1654:	24 ff       	sbrs	r18, 4
    1656:	0a c0       	rjmp	.+20     	; 0x166c <vfprintf+0x278>
    1658:	9f 2f       	mov	r25, r31
    165a:	96 60       	ori	r25, 0x06	; 6
    165c:	b9 2e       	mov	r11, r25
    165e:	06 c0       	rjmp	.+12     	; 0x166c <vfprintf+0x278>
    1660:	28 e0       	ldi	r18, 0x08	; 8
    1662:	30 e0       	ldi	r19, 0x00	; 0
    1664:	05 c0       	rjmp	.+10     	; 0x1670 <vfprintf+0x27c>
    1666:	20 e1       	ldi	r18, 0x10	; 16
    1668:	30 e0       	ldi	r19, 0x00	; 0
    166a:	02 c0       	rjmp	.+4      	; 0x1670 <vfprintf+0x27c>
    166c:	20 e1       	ldi	r18, 0x10	; 16
    166e:	32 e0       	ldi	r19, 0x02	; 2
    1670:	f8 01       	movw	r30, r16
    1672:	b7 fe       	sbrs	r11, 7
    1674:	07 c0       	rjmp	.+14     	; 0x1684 <vfprintf+0x290>
    1676:	60 81       	ld	r22, Z
    1678:	71 81       	ldd	r23, Z+1	; 0x01
    167a:	82 81       	ldd	r24, Z+2	; 0x02
    167c:	93 81       	ldd	r25, Z+3	; 0x03
    167e:	0c 5f       	subi	r16, 0xFC	; 252
    1680:	1f 4f       	sbci	r17, 0xFF	; 255
    1682:	06 c0       	rjmp	.+12     	; 0x1690 <vfprintf+0x29c>
    1684:	60 81       	ld	r22, Z
    1686:	71 81       	ldd	r23, Z+1	; 0x01
    1688:	80 e0       	ldi	r24, 0x00	; 0
    168a:	90 e0       	ldi	r25, 0x00	; 0
    168c:	0e 5f       	subi	r16, 0xFE	; 254
    168e:	1f 4f       	sbci	r17, 0xFF	; 255
    1690:	a4 01       	movw	r20, r8
    1692:	ec d0       	rcall	.+472    	; 0x186c <__ultoa_invert>
    1694:	a8 2e       	mov	r10, r24
    1696:	a8 18       	sub	r10, r8
    1698:	fb 2d       	mov	r31, r11
    169a:	ff 77       	andi	r31, 0x7F	; 127
    169c:	7f 2e       	mov	r7, r31
    169e:	76 fe       	sbrs	r7, 6
    16a0:	0b c0       	rjmp	.+22     	; 0x16b8 <vfprintf+0x2c4>
    16a2:	37 2d       	mov	r19, r7
    16a4:	3e 7f       	andi	r19, 0xFE	; 254
    16a6:	a5 14       	cp	r10, r5
    16a8:	50 f4       	brcc	.+20     	; 0x16be <vfprintf+0x2ca>
    16aa:	74 fe       	sbrs	r7, 4
    16ac:	0a c0       	rjmp	.+20     	; 0x16c2 <vfprintf+0x2ce>
    16ae:	72 fc       	sbrc	r7, 2
    16b0:	08 c0       	rjmp	.+16     	; 0x16c2 <vfprintf+0x2ce>
    16b2:	37 2d       	mov	r19, r7
    16b4:	3e 7e       	andi	r19, 0xEE	; 238
    16b6:	05 c0       	rjmp	.+10     	; 0x16c2 <vfprintf+0x2ce>
    16b8:	ba 2c       	mov	r11, r10
    16ba:	37 2d       	mov	r19, r7
    16bc:	03 c0       	rjmp	.+6      	; 0x16c4 <vfprintf+0x2d0>
    16be:	ba 2c       	mov	r11, r10
    16c0:	01 c0       	rjmp	.+2      	; 0x16c4 <vfprintf+0x2d0>
    16c2:	b5 2c       	mov	r11, r5
    16c4:	34 ff       	sbrs	r19, 4
    16c6:	0d c0       	rjmp	.+26     	; 0x16e2 <vfprintf+0x2ee>
    16c8:	fe 01       	movw	r30, r28
    16ca:	ea 0d       	add	r30, r10
    16cc:	f1 1d       	adc	r31, r1
    16ce:	80 81       	ld	r24, Z
    16d0:	80 33       	cpi	r24, 0x30	; 48
    16d2:	11 f4       	brne	.+4      	; 0x16d8 <vfprintf+0x2e4>
    16d4:	39 7e       	andi	r19, 0xE9	; 233
    16d6:	09 c0       	rjmp	.+18     	; 0x16ea <vfprintf+0x2f6>
    16d8:	32 ff       	sbrs	r19, 2
    16da:	06 c0       	rjmp	.+12     	; 0x16e8 <vfprintf+0x2f4>
    16dc:	b3 94       	inc	r11
    16de:	b3 94       	inc	r11
    16e0:	04 c0       	rjmp	.+8      	; 0x16ea <vfprintf+0x2f6>
    16e2:	83 2f       	mov	r24, r19
    16e4:	86 78       	andi	r24, 0x86	; 134
    16e6:	09 f0       	breq	.+2      	; 0x16ea <vfprintf+0x2f6>
    16e8:	b3 94       	inc	r11
    16ea:	33 fd       	sbrc	r19, 3
    16ec:	12 c0       	rjmp	.+36     	; 0x1712 <vfprintf+0x31e>
    16ee:	30 ff       	sbrs	r19, 0
    16f0:	06 c0       	rjmp	.+12     	; 0x16fe <vfprintf+0x30a>
    16f2:	5a 2c       	mov	r5, r10
    16f4:	b3 14       	cp	r11, r3
    16f6:	18 f4       	brcc	.+6      	; 0x16fe <vfprintf+0x30a>
    16f8:	53 0c       	add	r5, r3
    16fa:	5b 18       	sub	r5, r11
    16fc:	b3 2c       	mov	r11, r3
    16fe:	b3 14       	cp	r11, r3
    1700:	60 f4       	brcc	.+24     	; 0x171a <vfprintf+0x326>
    1702:	b7 01       	movw	r22, r14
    1704:	80 e2       	ldi	r24, 0x20	; 32
    1706:	90 e0       	ldi	r25, 0x00	; 0
    1708:	3c 87       	std	Y+12, r19	; 0x0c
    170a:	78 d0       	rcall	.+240    	; 0x17fc <fputc>
    170c:	b3 94       	inc	r11
    170e:	3c 85       	ldd	r19, Y+12	; 0x0c
    1710:	f6 cf       	rjmp	.-20     	; 0x16fe <vfprintf+0x30a>
    1712:	b3 14       	cp	r11, r3
    1714:	10 f4       	brcc	.+4      	; 0x171a <vfprintf+0x326>
    1716:	3b 18       	sub	r3, r11
    1718:	01 c0       	rjmp	.+2      	; 0x171c <vfprintf+0x328>
    171a:	31 2c       	mov	r3, r1
    171c:	34 ff       	sbrs	r19, 4
    171e:	11 c0       	rjmp	.+34     	; 0x1742 <vfprintf+0x34e>
    1720:	b7 01       	movw	r22, r14
    1722:	80 e3       	ldi	r24, 0x30	; 48
    1724:	90 e0       	ldi	r25, 0x00	; 0
    1726:	3c 87       	std	Y+12, r19	; 0x0c
    1728:	69 d0       	rcall	.+210    	; 0x17fc <fputc>
    172a:	3c 85       	ldd	r19, Y+12	; 0x0c
    172c:	32 ff       	sbrs	r19, 2
    172e:	16 c0       	rjmp	.+44     	; 0x175c <vfprintf+0x368>
    1730:	31 fd       	sbrc	r19, 1
    1732:	03 c0       	rjmp	.+6      	; 0x173a <vfprintf+0x346>
    1734:	88 e7       	ldi	r24, 0x78	; 120
    1736:	90 e0       	ldi	r25, 0x00	; 0
    1738:	02 c0       	rjmp	.+4      	; 0x173e <vfprintf+0x34a>
    173a:	88 e5       	ldi	r24, 0x58	; 88
    173c:	90 e0       	ldi	r25, 0x00	; 0
    173e:	b7 01       	movw	r22, r14
    1740:	0c c0       	rjmp	.+24     	; 0x175a <vfprintf+0x366>
    1742:	83 2f       	mov	r24, r19
    1744:	86 78       	andi	r24, 0x86	; 134
    1746:	51 f0       	breq	.+20     	; 0x175c <vfprintf+0x368>
    1748:	31 ff       	sbrs	r19, 1
    174a:	02 c0       	rjmp	.+4      	; 0x1750 <vfprintf+0x35c>
    174c:	8b e2       	ldi	r24, 0x2B	; 43
    174e:	01 c0       	rjmp	.+2      	; 0x1752 <vfprintf+0x35e>
    1750:	80 e2       	ldi	r24, 0x20	; 32
    1752:	37 fd       	sbrc	r19, 7
    1754:	8d e2       	ldi	r24, 0x2D	; 45
    1756:	b7 01       	movw	r22, r14
    1758:	90 e0       	ldi	r25, 0x00	; 0
    175a:	50 d0       	rcall	.+160    	; 0x17fc <fputc>
    175c:	a5 14       	cp	r10, r5
    175e:	30 f4       	brcc	.+12     	; 0x176c <vfprintf+0x378>
    1760:	b7 01       	movw	r22, r14
    1762:	80 e3       	ldi	r24, 0x30	; 48
    1764:	90 e0       	ldi	r25, 0x00	; 0
    1766:	4a d0       	rcall	.+148    	; 0x17fc <fputc>
    1768:	5a 94       	dec	r5
    176a:	f8 cf       	rjmp	.-16     	; 0x175c <vfprintf+0x368>
    176c:	aa 94       	dec	r10
    176e:	f4 01       	movw	r30, r8
    1770:	ea 0d       	add	r30, r10
    1772:	f1 1d       	adc	r31, r1
    1774:	80 81       	ld	r24, Z
    1776:	b7 01       	movw	r22, r14
    1778:	90 e0       	ldi	r25, 0x00	; 0
    177a:	40 d0       	rcall	.+128    	; 0x17fc <fputc>
    177c:	a1 10       	cpse	r10, r1
    177e:	f6 cf       	rjmp	.-20     	; 0x176c <vfprintf+0x378>
    1780:	33 20       	and	r3, r3
    1782:	09 f4       	brne	.+2      	; 0x1786 <vfprintf+0x392>
    1784:	5d ce       	rjmp	.-838    	; 0x1440 <vfprintf+0x4c>
    1786:	b7 01       	movw	r22, r14
    1788:	80 e2       	ldi	r24, 0x20	; 32
    178a:	90 e0       	ldi	r25, 0x00	; 0
    178c:	37 d0       	rcall	.+110    	; 0x17fc <fputc>
    178e:	3a 94       	dec	r3
    1790:	f7 cf       	rjmp	.-18     	; 0x1780 <vfprintf+0x38c>
    1792:	f7 01       	movw	r30, r14
    1794:	86 81       	ldd	r24, Z+6	; 0x06
    1796:	97 81       	ldd	r25, Z+7	; 0x07
    1798:	02 c0       	rjmp	.+4      	; 0x179e <vfprintf+0x3aa>
    179a:	8f ef       	ldi	r24, 0xFF	; 255
    179c:	9f ef       	ldi	r25, 0xFF	; 255
    179e:	2c 96       	adiw	r28, 0x0c	; 12
    17a0:	0f b6       	in	r0, 0x3f	; 63
    17a2:	f8 94       	cli
    17a4:	de bf       	out	0x3e, r29	; 62
    17a6:	0f be       	out	0x3f, r0	; 63
    17a8:	cd bf       	out	0x3d, r28	; 61
    17aa:	df 91       	pop	r29
    17ac:	cf 91       	pop	r28
    17ae:	1f 91       	pop	r17
    17b0:	0f 91       	pop	r16
    17b2:	ff 90       	pop	r15
    17b4:	ef 90       	pop	r14
    17b6:	df 90       	pop	r13
    17b8:	cf 90       	pop	r12
    17ba:	bf 90       	pop	r11
    17bc:	af 90       	pop	r10
    17be:	9f 90       	pop	r9
    17c0:	8f 90       	pop	r8
    17c2:	7f 90       	pop	r7
    17c4:	6f 90       	pop	r6
    17c6:	5f 90       	pop	r5
    17c8:	4f 90       	pop	r4
    17ca:	3f 90       	pop	r3
    17cc:	2f 90       	pop	r2
    17ce:	08 95       	ret

000017d0 <strnlen_P>:
    17d0:	fc 01       	movw	r30, r24
    17d2:	05 90       	lpm	r0, Z+
    17d4:	61 50       	subi	r22, 0x01	; 1
    17d6:	70 40       	sbci	r23, 0x00	; 0
    17d8:	01 10       	cpse	r0, r1
    17da:	d8 f7       	brcc	.-10     	; 0x17d2 <strnlen_P+0x2>
    17dc:	80 95       	com	r24
    17de:	90 95       	com	r25
    17e0:	8e 0f       	add	r24, r30
    17e2:	9f 1f       	adc	r25, r31
    17e4:	08 95       	ret

000017e6 <strnlen>:
    17e6:	fc 01       	movw	r30, r24
    17e8:	61 50       	subi	r22, 0x01	; 1
    17ea:	70 40       	sbci	r23, 0x00	; 0
    17ec:	01 90       	ld	r0, Z+
    17ee:	01 10       	cpse	r0, r1
    17f0:	d8 f7       	brcc	.-10     	; 0x17e8 <strnlen+0x2>
    17f2:	80 95       	com	r24
    17f4:	90 95       	com	r25
    17f6:	8e 0f       	add	r24, r30
    17f8:	9f 1f       	adc	r25, r31
    17fa:	08 95       	ret

000017fc <fputc>:
    17fc:	0f 93       	push	r16
    17fe:	1f 93       	push	r17
    1800:	cf 93       	push	r28
    1802:	df 93       	push	r29
    1804:	fb 01       	movw	r30, r22
    1806:	23 81       	ldd	r18, Z+3	; 0x03
    1808:	21 fd       	sbrc	r18, 1
    180a:	03 c0       	rjmp	.+6      	; 0x1812 <fputc+0x16>
    180c:	8f ef       	ldi	r24, 0xFF	; 255
    180e:	9f ef       	ldi	r25, 0xFF	; 255
    1810:	28 c0       	rjmp	.+80     	; 0x1862 <fputc+0x66>
    1812:	22 ff       	sbrs	r18, 2
    1814:	16 c0       	rjmp	.+44     	; 0x1842 <fputc+0x46>
    1816:	46 81       	ldd	r20, Z+6	; 0x06
    1818:	57 81       	ldd	r21, Z+7	; 0x07
    181a:	24 81       	ldd	r18, Z+4	; 0x04
    181c:	35 81       	ldd	r19, Z+5	; 0x05
    181e:	42 17       	cp	r20, r18
    1820:	53 07       	cpc	r21, r19
    1822:	44 f4       	brge	.+16     	; 0x1834 <fputc+0x38>
    1824:	a0 81       	ld	r26, Z
    1826:	b1 81       	ldd	r27, Z+1	; 0x01
    1828:	9d 01       	movw	r18, r26
    182a:	2f 5f       	subi	r18, 0xFF	; 255
    182c:	3f 4f       	sbci	r19, 0xFF	; 255
    182e:	31 83       	std	Z+1, r19	; 0x01
    1830:	20 83       	st	Z, r18
    1832:	8c 93       	st	X, r24
    1834:	26 81       	ldd	r18, Z+6	; 0x06
    1836:	37 81       	ldd	r19, Z+7	; 0x07
    1838:	2f 5f       	subi	r18, 0xFF	; 255
    183a:	3f 4f       	sbci	r19, 0xFF	; 255
    183c:	37 83       	std	Z+7, r19	; 0x07
    183e:	26 83       	std	Z+6, r18	; 0x06
    1840:	10 c0       	rjmp	.+32     	; 0x1862 <fputc+0x66>
    1842:	eb 01       	movw	r28, r22
    1844:	09 2f       	mov	r16, r25
    1846:	18 2f       	mov	r17, r24
    1848:	00 84       	ldd	r0, Z+8	; 0x08
    184a:	f1 85       	ldd	r31, Z+9	; 0x09
    184c:	e0 2d       	mov	r30, r0
    184e:	19 95       	eicall
    1850:	89 2b       	or	r24, r25
    1852:	e1 f6       	brne	.-72     	; 0x180c <fputc+0x10>
    1854:	8e 81       	ldd	r24, Y+6	; 0x06
    1856:	9f 81       	ldd	r25, Y+7	; 0x07
    1858:	01 96       	adiw	r24, 0x01	; 1
    185a:	9f 83       	std	Y+7, r25	; 0x07
    185c:	8e 83       	std	Y+6, r24	; 0x06
    185e:	81 2f       	mov	r24, r17
    1860:	90 2f       	mov	r25, r16
    1862:	df 91       	pop	r29
    1864:	cf 91       	pop	r28
    1866:	1f 91       	pop	r17
    1868:	0f 91       	pop	r16
    186a:	08 95       	ret

0000186c <__ultoa_invert>:
    186c:	fa 01       	movw	r30, r20
    186e:	aa 27       	eor	r26, r26
    1870:	28 30       	cpi	r18, 0x08	; 8
    1872:	51 f1       	breq	.+84     	; 0x18c8 <__ultoa_invert+0x5c>
    1874:	20 31       	cpi	r18, 0x10	; 16
    1876:	81 f1       	breq	.+96     	; 0x18d8 <__ultoa_invert+0x6c>
    1878:	e8 94       	clt
    187a:	6f 93       	push	r22
    187c:	6e 7f       	andi	r22, 0xFE	; 254
    187e:	6e 5f       	subi	r22, 0xFE	; 254
    1880:	7f 4f       	sbci	r23, 0xFF	; 255
    1882:	8f 4f       	sbci	r24, 0xFF	; 255
    1884:	9f 4f       	sbci	r25, 0xFF	; 255
    1886:	af 4f       	sbci	r26, 0xFF	; 255
    1888:	b1 e0       	ldi	r27, 0x01	; 1
    188a:	3e d0       	rcall	.+124    	; 0x1908 <__ultoa_invert+0x9c>
    188c:	b4 e0       	ldi	r27, 0x04	; 4
    188e:	3c d0       	rcall	.+120    	; 0x1908 <__ultoa_invert+0x9c>
    1890:	67 0f       	add	r22, r23
    1892:	78 1f       	adc	r23, r24
    1894:	89 1f       	adc	r24, r25
    1896:	9a 1f       	adc	r25, r26
    1898:	a1 1d       	adc	r26, r1
    189a:	68 0f       	add	r22, r24
    189c:	79 1f       	adc	r23, r25
    189e:	8a 1f       	adc	r24, r26
    18a0:	91 1d       	adc	r25, r1
    18a2:	a1 1d       	adc	r26, r1
    18a4:	6a 0f       	add	r22, r26
    18a6:	71 1d       	adc	r23, r1
    18a8:	81 1d       	adc	r24, r1
    18aa:	91 1d       	adc	r25, r1
    18ac:	a1 1d       	adc	r26, r1
    18ae:	20 d0       	rcall	.+64     	; 0x18f0 <__ultoa_invert+0x84>
    18b0:	09 f4       	brne	.+2      	; 0x18b4 <__ultoa_invert+0x48>
    18b2:	68 94       	set
    18b4:	3f 91       	pop	r19
    18b6:	2a e0       	ldi	r18, 0x0A	; 10
    18b8:	26 9f       	mul	r18, r22
    18ba:	11 24       	eor	r1, r1
    18bc:	30 19       	sub	r19, r0
    18be:	30 5d       	subi	r19, 0xD0	; 208
    18c0:	31 93       	st	Z+, r19
    18c2:	de f6       	brtc	.-74     	; 0x187a <__ultoa_invert+0xe>
    18c4:	cf 01       	movw	r24, r30
    18c6:	08 95       	ret
    18c8:	46 2f       	mov	r20, r22
    18ca:	47 70       	andi	r20, 0x07	; 7
    18cc:	40 5d       	subi	r20, 0xD0	; 208
    18ce:	41 93       	st	Z+, r20
    18d0:	b3 e0       	ldi	r27, 0x03	; 3
    18d2:	0f d0       	rcall	.+30     	; 0x18f2 <__ultoa_invert+0x86>
    18d4:	c9 f7       	brne	.-14     	; 0x18c8 <__ultoa_invert+0x5c>
    18d6:	f6 cf       	rjmp	.-20     	; 0x18c4 <__ultoa_invert+0x58>
    18d8:	46 2f       	mov	r20, r22
    18da:	4f 70       	andi	r20, 0x0F	; 15
    18dc:	40 5d       	subi	r20, 0xD0	; 208
    18de:	4a 33       	cpi	r20, 0x3A	; 58
    18e0:	18 f0       	brcs	.+6      	; 0x18e8 <__ultoa_invert+0x7c>
    18e2:	49 5d       	subi	r20, 0xD9	; 217
    18e4:	31 fd       	sbrc	r19, 1
    18e6:	40 52       	subi	r20, 0x20	; 32
    18e8:	41 93       	st	Z+, r20
    18ea:	02 d0       	rcall	.+4      	; 0x18f0 <__ultoa_invert+0x84>
    18ec:	a9 f7       	brne	.-22     	; 0x18d8 <__ultoa_invert+0x6c>
    18ee:	ea cf       	rjmp	.-44     	; 0x18c4 <__ultoa_invert+0x58>
    18f0:	b4 e0       	ldi	r27, 0x04	; 4
    18f2:	a6 95       	lsr	r26
    18f4:	97 95       	ror	r25
    18f6:	87 95       	ror	r24
    18f8:	77 95       	ror	r23
    18fa:	67 95       	ror	r22
    18fc:	ba 95       	dec	r27
    18fe:	c9 f7       	brne	.-14     	; 0x18f2 <__ultoa_invert+0x86>
    1900:	00 97       	sbiw	r24, 0x00	; 0
    1902:	61 05       	cpc	r22, r1
    1904:	71 05       	cpc	r23, r1
    1906:	08 95       	ret
    1908:	9b 01       	movw	r18, r22
    190a:	ac 01       	movw	r20, r24
    190c:	0a 2e       	mov	r0, r26
    190e:	06 94       	lsr	r0
    1910:	57 95       	ror	r21
    1912:	47 95       	ror	r20
    1914:	37 95       	ror	r19
    1916:	27 95       	ror	r18
    1918:	ba 95       	dec	r27
    191a:	c9 f7       	brne	.-14     	; 0x190e <__ultoa_invert+0xa2>
    191c:	62 0f       	add	r22, r18
    191e:	73 1f       	adc	r23, r19
    1920:	84 1f       	adc	r24, r20
    1922:	95 1f       	adc	r25, r21
    1924:	a0 1d       	adc	r26, r0
    1926:	08 95       	ret

00001928 <_exit>:
    1928:	f8 94       	cli

0000192a <__stop_program>:
    192a:	ff cf       	rjmp	.-2      	; 0x192a <__stop_program>
